(dp0
I71
ccopy_reg
_reconstructor
p1
(caudition_program
Dancer
p2
c__builtin__
object
p3
Ntp4
Rp5
(dp6
S'first_name'
p7
S'Elisa'
p8
sS'last_name'
p9
S'Pabon'
p10
sS'num_pieces'
p11
I0
sS'gender'
p12
S'F'
p13
sS'email'
p14
S'epabon@andrew.cmu.edu'
p15
sS'phone'
p16
S'7812675400'
p17
sS'piece_ids'
p18
(lp19
g1
(caudition_program
Piece
p20
g3
Ntp21
Rp22
(dp23
S'capacity'
p24
I28
sS'name'
p25
S'Lisa and Feyi'
p26
sS'dancers'
p27
(lp28
g1
(g2
g3
Ntp29
Rp30
(dp31
g7
S'Lisa'
p32
sg9
S'Natale'
p33
sg11
I0
sg12
g13
sg14
S'lnatale@andrew.cmu.edu'
p34
sg16
S'4074612769'
p35
sg18
(lp36
g22
ag1
(g20
g3
Ntp37
Rp38
(dp39
g24
I17
sg25
S'Michelle and Elisa'
p40
sg27
(lp41
g5
ag1
(g2
g3
Ntp42
Rp43
(dp44
g7
S'Michelle'
p45
sg9
S'Cho'
p46
sg11
I0
sg12
g13
sg14
S'no email'
p47
sg16
S'no phone'
p48
sg18
(lp49
g22
ag38
ag1
(g20
g3
Ntp50
Rp51
(dp52
g24
I15
sg25
S'Yuyan Sun'
p53
sg27
(lp54
g1
(g2
g3
Ntp55
Rp56
(dp57
g7
S'Yuyan'
p58
sg9
S'Sun'
p59
sg11
I1
sg12
g13
sg14
S'yuyans@andrew.cmu.edu'
p60
sg16
S'4122514792'
p61
sg18
(lp62
g51
asS'id'
p63
I81
sS'piece_rankings'
p64
(lp65
I12
asbag5
ag43
ag1
(g2
g3
Ntp66
Rp67
(dp68
g7
S'Karin'
p69
sg9
S'Tsai'
p70
sg11
I0
sg12
g13
sg14
S'karintsa@andrew.cmu.edu'
p71
sg16
S'717-817-1027'
p72
sg18
(lp73
g1
(g20
g3
Ntp74
Rp75
(dp76
g24
I12
sg25
S'Katie Tang'
p77
sg27
(lp78
g1
(g2
g3
Ntp79
Rp80
(dp81
g7
S'Katie'
p82
sg9
S'Tang'
p83
sg11
I3
sg12
g13
sg14
S'ktang1@andrew.cmu.edu'
p84
sg16
S'9733496448'
p85
sg18
(lp86
g75
asg63
I89
sg64
(lp87
I7
asbag67
ag1
(g2
g3
Ntp88
Rp89
(dp90
g7
S'Christin'
p91
sg9
S'Bongiorni'
p92
sg11
I0
sg12
g13
sg14
S'cbongior@andrew.cmu.edu'
p93
sg16
S'724-809-5704'
p94
sg18
(lp95
g75
ag1
(g20
g3
Ntp96
Rp97
(dp98
g24
I12
sg25
S'Gail Wilson'
p99
sg27
(lp100
g1
(g2
g3
Ntp101
Rp102
(dp103
g7
S'Gail'
p104
sg9
S'Wilson'
p105
sg11
I0
sg12
g13
sg14
S'gdw@andrew.cmu.edu'
p106
sg16
S'9253951097'
p107
sg18
(lp108
g22
ag97
ag1
(g20
g3
Ntp109
Rp110
(dp111
g24
I14
sg25
S'Feyi and Karin'
p112
sg27
(lp113
g1
(g2
g3
Ntp114
Rp115
(dp116
g7
S'Feyi'
p117
sg9
S'Quadri'
p118
sg11
I0
sg12
g13
sg14
S'fmq@andrew.cmu.edu'
p119
sg16
S'301-928-7195'
p120
sg18
(lp121
g22
ag110
ag1
(g20
g3
Ntp122
Rp123
(dp124
g24
I16
sg25
S'Alexis and Leann'
p125
sg27
(lp126
g1
(g2
g3
Ntp127
Rp128
(dp129
g7
S'Alexis'
p130
sg9
S'DeLaRosa'
p131
sg11
I0
sg12
g13
sg14
S'adelaros@andrew.cmu.edu'
p132
sg16
S'4+'
p133
sg18
(lp134
g1
(g20
g3
Ntp135
Rp136
(dp137
g24
I14
sg25
S'Alexis DeLaRosa'
p138
sg27
(lp139
g128
ag1
(g2
g3
Ntp140
Rp141
(dp142
g7
S'Rochelle'
p143
sg9
S'Samuel'
p144
sg11
I0
sg12
g13
sg14
S'rsamuel@andrew.cmu.edu'
p145
sg16
S'240-672-7683'
p146
sg18
(lp147
g136
ag110
ag22
asg63
I224
sg64
(lp148
I9
aI10
asbag1
(g2
g3
Ntp149
Rp150
(dp151
g7
S'Winona'
p152
sg9
S'Li'
p153
sg11
I0
sg12
g13
sg14
S'wnl@andrew.cmu.edu'
p154
sg16
S'4123527893'
p155
sg18
(lp156
g136
ag1
(g20
g3
Ntp157
Rp158
(dp159
g24
I12
sg25
S'Jackie Lee'
p160
sg27
(lp161
g1
(g2
g3
Ntp162
Rp163
(dp164
g7
S'Jacqueline'
p165
sg9
S'Lee'
p166
sg11
I0
sg12
g13
sg14
S'jacquell@andrew.cmu.edu'
p167
sg16
S'6263885735'
p168
sg18
(lp169
g158
ag1
(g20
g3
Ntp170
Rp171
(dp172
g24
I8
sg25
S'Amy Lee'
p173
sg27
(lp174
g150
ag1
(g2
g3
Ntp175
Rp176
(dp177
g7
S'Kristina'
p178
sg9
S'Banh'
p179
sg11
I0
sg12
g13
sg14
S'kbanh@andrew.cmu.edu'
p180
sg16
S'2149144987'
p181
sg18
(lp182
g123
ag171
ag1
(g20
g3
Ntp183
Rp184
(dp185
g24
I15
sg25
S'Julia Amy and Ashley'
p186
sg27
(lp187
g1
(g2
g3
Ntp188
Rp189
(dp190
g7
S'Ashley'
p191
sg9
S'Lee'
p192
sg11
I0
sg12
g13
sg14
S'ashleyle@andrew.cmu.edu'
p193
sg16
S'2407538521'
p194
sg18
(lp195
g1
(g20
g3
Ntp196
Rp197
(dp198
g24
I12
sg25
S'Amy Chen'
p199
sg27
(lp200
g1
(g2
g3
Ntp201
Rp202
(dp203
g7
S'Amy'
p204
sg9
S'Chen'
p205
sg11
I1
sg12
g13
sg14
S'ayc1@andrew.cmu.edu'
p206
sg16
S'650-833-9629'
p207
sg18
(lp208
g197
ag184
ag75
asg63
I82
sg64
(lp209
sbag1
(g2
g3
Ntp210
Rp211
(dp212
g7
S'Julia'
p213
sg9
S'Luo'
p214
sg11
I0
sg12
g13
sg14
S'julialuo@andrew.cmu.edu'
p215
sg16
S'2158598203'
p216
sg18
(lp217
g197
ag158
ag184
ag1
(g20
g3
Ntp218
Rp219
(dp220
g24
I12
sg25
S'Regine Choi'
p221
sg27
(lp222
g1
(g2
g3
Ntp223
Rp224
(dp225
g7
S'Regine'
p226
sg9
S'Choi'
p227
sg11
I1
sg12
g13
sg14
S'ric@andrew.cmu.edu'
p228
sg16
S'(302) 897-0894'
p229
sg18
(lp230
g158
ag219
ag184
asg63
I83
sg64
(lp231
I21
asbag189
ag1
(g2
g3
Ntp232
Rp233
(dp234
g7
S'Jeanette'
p235
sg9
S'Pong'
p236
sg11
I0
sg12
g13
sg14
S'kaiyingp@andrew.cmu.edu'
p237
sg16
S'6509449583'
p238
sg18
(lp239
g184
ag219
ag1
(g20
g3
Ntp240
Rp241
(dp242
g24
I12
sg25
S'Himali and Emily'
p243
sg27
(lp244
g1
(g2
g3
Ntp245
Rp246
(dp247
g7
S'Emily'
p248
sg9
S'Giedzinski'
p249
sg11
I0
sg12
g13
sg14
S'egiedzin@andrew.cmu.edu'
p250
sg16
S'3'
p251
sg18
(lp252
g1
(g20
g3
Ntp253
Rp254
(dp255
g24
I9
sg25
S'Emily and Jade'
p256
sg27
(lp257
g1
(g2
g3
Ntp258
Rp259
(dp260
g7
S'Jade'
p261
sg9
S'Schiffer'
p262
sg11
I0
sg12
g13
sg14
S'jschiffe@andrew.cmu.edu'
p263
sg16
S'9142173322'
p264
sg18
(lp265
g254
ag219
asg63
I92
sg64
(lp266
I16
aI5
asbag246
ag1
(g2
g3
Ntp267
Rp268
(dp269
g7
S'Kelsey'
p270
sg9
S'Scott'
p271
sg11
I0
sg12
g13
sg14
S'kescott@andrew.cmu.edu'
p272
sg16
S'9086192579'
p273
sg18
(lp274
g254
ag241
ag184
asg63
I164
sg64
(lp275
I11
aI4
aI15
asbag1
(g2
g3
Ntp276
Rp277
(dp278
g7
S'Amy '
p279
sg9
S'Lee'
p280
sg11
I0
sg12
g13
sg14
S'amylee@andrew.cmu.edu'
p281
sg16
S'4+'
p282
sg18
(lp283
g1
(g20
g3
Ntp284
Rp285
(dp286
g24
I16
sg25
S'Terrence Mims'
p287
sg27
(lp288
g1
(g2
g3
Ntp289
Rp290
(dp291
g7
S'Terrence'
p292
sg9
S'Mims'
p293
sg11
I0
sg12
S'M'
p294
sg14
S'tmimstv@icloud.com'
p295
sg16
S'4124990271'
p296
sg18
(lp297
g22
ag285
ag110
asg63
I85
sg64
(lp298
I18
aI12
aI20
aI15
aI7
asbag1
(g2
g3
Ntp299
Rp300
(dp301
g7
S'Chris'
p302
sg9
S'Shon'
p303
sg11
I1
sg12
g294
sg14
S'sieon97@yahoo.com'
p304
sg16
S'2155183683'
p305
sg18
(lp306
g285
ag197
asg63
I274
sg64
(lp307
I2
asbag1
(g2
g3
Ntp308
Rp309
(dp310
g7
S'Sean'
p311
sg9
S'Xiao'
p312
sg11
I0
sg12
g294
sg14
S'ssx@andrew.cmu.edu'
p313
sg16
S'4129152944'
p314
sg18
(lp315
g285
ag1
(g20
g3
Ntp316
Rp317
(dp318
g24
I8
sg25
S'Sang Xu'
p319
sg27
(lp320
g1
(g2
g3
Ntp321
Rp322
(dp323
g7
S'Sang'
p324
sg9
S'Xu'
p325
sg11
I1
sg12
g294
sg14
S'sangx@andrew.cmu.edu'
p326
sg16
S'4129613477'
p327
sg18
(lp328
g110
ag317
asg63
I88
sg64
(lp329
I3
asbag1
(g2
g3
Ntp330
Rp331
(dp332
g7
S'Aleah'
p333
sg9
S'Haygood'
p334
sg11
I0
sg12
g13
sg14
S'ahaygood@andrew.cmu.edu'
p335
sg16
S'4136570296'
p336
sg18
(lp337
g110
ag317
ag22
asg63
I124
sg64
(lp338
I7
aI2
aI5
asbag1
(g2
g3
Ntp339
Rp340
(dp341
g7
S'Albert'
p342
sg9
S'Du'
p343
sg11
I0
sg12
g294
sg14
S'lbrtdu@yahoo.com'
p344
sg16
S'412-983-0136'
p345
sg18
(lp346
g285
ag317
ag38
asg63
I183
sg64
(lp347
I6
aI7
aI4
aI10
aI5
aI1
aI8
aI21
asbag309
ag1
(g2
g3
Ntp348
Rp349
(dp350
g7
S'Benjamin'
p351
sg9
S'Chu'
p352
sg11
I0
sg12
g294
sg14
S'bcchu@andrew.cmu.edu'
p353
sg16
S'4084933045'
p354
sg18
(lp355
g317
ag75
asg63
I250
sg64
(lp356
I5
aI4
aI10
aI11
aI22
asbag1
(g2
g3
Ntp357
Rp358
(dp359
g7
S'John'
p360
sg9
S'Han'
p361
sg11
I0
sg12
g294
sg14
S'manjunh@andrew.cmu.edu'
p362
sg16
S'4126946199'
p363
sg18
(lp364
g285
ag317
ag51
asg63
I305
sg64
(lp365
I8
aI10
asbag1
(g2
g3
Ntp366
Rp367
(dp368
g7
S'Wellington'
p369
sg9
S'Lee'
p370
sg11
I0
sg12
g294
sg14
S'wklee@andrew.cmu.edu'
p371
sg16
S'5209813052'
p372
sg18
(lp373
g317
asg63
I194
sg64
(lp374
sbag1
(g2
g3
Ntp375
Rp376
(dp377
g7
S'Kaalen'
p378
sg9
S'Kirrene'
p379
sg11
I0
sg12
g294
sg14
g47
sg16
g48
sg18
(lp380
g1
(g20
g3
Ntp381
Rp382
(dp383
g24
I14
sg25
S'Jilisa McCullough'
p384
sg27
(lp385
g1
(g2
g3
Ntp386
Rp387
(dp388
g7
S'JIlisa'
p389
sg9
S'McCullough'
p390
sg11
I1
sg12
g13
sg14
S'jilisam@andrew.cmu.edu'
p391
sg16
S'2677016259'
p392
sg18
(lp393
g382
ag136
ag184
asg63
I78
sg64
(lp394
I8
asbag115
ag1
(g2
g3
Ntp395
Rp396
(dp397
g7
S'Oliver'
p398
sg9
S'Liburd'
p399
sg11
I1
sg12
g294
sg14
g47
sg16
g48
sg18
(lp400
g382
ag1
(g20
g3
Ntp401
Rp402
(dp403
g24
I10
sg25
S'Yiyi Zhao'
p404
sg27
(lp405
g1
(g2
g3
Ntp406
Rp407
(dp408
g7
S'Yiyi'
p409
sg9
S'Zhao'
p410
sg11
I1
sg12
g13
sg14
S'yiyizhao@andrew.cmu.edu'
p411
sg16
S'4125927874'
p412
sg18
(lp413
g402
ag1
(g20
g3
Ntp414
Rp415
(dp416
g24
I8
sg25
S'Ivana Stevens'
p417
sg27
(lp418
g1
(g2
g3
Ntp419
Rp420
(dp421
g7
S'Ivana'
p422
sg9
S'Stevens'
p423
sg11
I1
sg12
g13
sg14
S'istevens@andrew.cmu.edu'
p424
sg16
S'7573199541'
p425
sg18
(lp426
g415
asg63
I97
sg64
(lp427
I8
aI14
aI10
aI1
aI5
aI6
aI7
aI20
aI11
aI3
aI2
aI21
asbag1
(g2
g3
Ntp428
Rp429
(dp430
g7
S'Himalli'
p431
sg9
S'Ranade'
p432
sg11
I0
sg12
g13
sg14
S'hranade@andrew.cmu.edu'
p433
sg16
S'4123787548'
p434
sg18
(lp435
g241
ag402
ag415
ag254
asg63
I91
sg64
(lp436
I20
aI21
aI12
aI18
aI14
aI15
aI10
aI11
aI8
aI5
aI4
asbag407
ag1
(g2
g3
Ntp437
Rp438
(dp439
g7
S'DeeDee'
p440
sg9
S'Han'
p441
sg11
I0
sg12
g13
sg14
S'dthan@andrew.cmu.edu'
p442
sg16
S'0'
p443
sg18
(lp444
g415
ag402
asg63
I240
sg64
(lp445
I5
asbag246
ag1
(g2
g3
Ntp446
Rp447
(dp448
g7
S'Gabe'
p449
sg9
S'Bamforth'
p450
sg11
I0
sg12
g294
sg14
S'gbb@andrew.cmu.edu'
p451
sg16
S'6172902011'
p452
sg18
(lp453
g415
asg63
I313
sg64
(lp454
I11
aI12
asbasS'dancer_rankings'
p455
(lp456
I97
aI91
aI95
aI96
aI313
aI240
asS'gender_constraints'
p457
(dp458
sg63
I19
sbag219
asg63
I96
sg64
(lp459
I16
aI14
aI5
aI11
aI18
aI7
aI6
aI2
aI1
aI8
aI4
asbag429
ag1
(g2
g3
Ntp460
Rp461
(dp462
g7
S'Sam'
p463
sg9
S'Gao'
p464
sg11
I0
sg12
g13
sg14
S'samanthg@andrew.cmu.edu'
p465
sg16
S'7188667513'
p466
sg18
(lp467
g285
ag402
asg63
I162
sg64
(lp468
I13
aI15
aI18
aI21
asbag1
(g2
g3
Ntp469
Rp470
(dp471
g7
S'Juan Miguel'
p472
sg9
S'Ogarrio'
p473
sg11
I1
sg12
g294
sg14
S'jogarrio@andrew.cmu.edu'
p474
sg16
S'412-956-7655'
p475
sg18
(lp476
g158
ag402
asg63
I168
sg64
(lp477
I2
aI11
aI13
aI21
asbag1
(g2
g3
Ntp478
Rp479
(dp480
g7
S'Shi'
p481
sg9
S'Xue'
p482
sg11
I2
sg12
g13
sg14
S'shix@andrew.cmu.edu'
p483
sg16
S'4127081922'
p484
sg18
(lp485
g402
asg63
I205
sg64
(lp486
I4
aI15
aI11
aI13
asbag1
(g2
g3
Ntp487
Rp488
(dp489
g7
S'Adeline'
p490
sg9
S'Shin'
p491
sg11
I0
sg12
g13
sg14
S'adelines@andrew.cmu.edu'
p492
sg16
S'8584059664'
p493
sg18
(lp494
g402
asg63
I186
sg64
(lp495
I19
aI13
aI18
aI21
aI12
aI15
aI11
asbag396
ag438
ag1
(g2
g3
Ntp496
Rp497
(dp498
g7
S'Velisa'
p499
sg9
S'Li'
p500
sg11
I2
sg12
g13
sg14
S'vcl@andrew.cmu.edu'
p501
sg16
S'610-653-4032'
p502
sg18
(lp503
g402
asg63
I264
sg64
(lp504
I21
aI6
asbag1
(g2
g3
Ntp505
Rp506
(dp507
g7
S'Audrey'
p508
sg9
S'Zheng'
p509
sg11
I2
sg12
g13
sg14
S'audreyz@andrew.cmu.edu'
p510
sg16
g443
sg18
(lp511
g402
asg63
I276
sg64
(lp512
I3
aI9
aI12
aI22
aI5
aI13
asbasg455
(lp513
I96
aI91
aI162
aI168
aI205
aI186
aI171
aI187
aI240
aI264
aI276
aI279
aI313
aI316
asg457
(dp514
g294
g1
(caudition_program
GenderConstraint
p515
g3
Ntp516
Rp517
(dp518
S'max'
p519
I2
sS'min'
p520
I2
sbsg13
g1
(g515
g3
Ntp521
Rp522
(dp523
g519
I8
sg520
I8
sbssg63
I17
sbasg63
I171
sg64
(lp524
I13
asbag1
(g2
g3
Ntp525
Rp526
(dp527
g7
S'Shae'
p528
sg9
S'Hart'
p529
sg11
I0
sg12
g13
sg14
S'sthart@andrew.cmu.edu'
p530
sg16
S'4802944280'
p531
sg18
(lp532
g22
ag382
asg63
I304
sg64
(lp533
I13
aI18
asbag376
ag1
(g2
g3
Ntp534
Rp535
(dp536
g7
S'Priscilla'
p537
sg9
S'Medor'
p538
sg11
I0
sg12
g13
sg14
S'pmedor@andrew.cmu.edu'
p539
sg16
S'8452825210'
p540
sg18
(lp541
g382
asg63
I191
sg64
(lp542
I9
aI19
aI7
asbag1
(g2
g3
Ntp543
Rp544
(dp545
g7
S'kathryn'
p546
sg9
S'bregna'
p547
sg11
I1
sg12
g13
sg14
S'kbregna@andrew.cmu.edu'
p548
sg16
S'2012304671'
p549
sg18
(lp550
g382
asg63
I210
sg64
(lp551
sbag1
(g2
g3
Ntp552
Rp553
(dp554
g7
S'Will'
p555
sg9
S'Crouch'
p556
sg11
I0
sg12
g294
sg14
S'wcrouch@andrew.cmu'
p557
sg16
S'4782357533'
p558
sg18
(lp559
g123
ag382
ag38
asg63
I130
sg64
(lp560
sbag1
(g2
g3
Ntp561
Rp562
(dp563
g7
S'Nakul'
p564
sg9
S'Garg'
p565
sg11
I0
sg12
g294
sg14
S'ngarg1@andrew.cmu.edu'
p566
sg16
S'9145239412'
p567
sg18
(lp568
g75
ag382
asg63
I173
sg64
(lp569
sbag1
(g2
g3
Ntp570
Rp571
(dp572
g7
S'Ashwin'
p573
sg9
S'Panda'
p574
sg11
I0
sg12
g294
sg14
S'apanda1@andrew.cmu.edu'
p575
sg16
S'5086158846'
p576
sg18
(lp577
g382
asg63
I140
sg64
(lp578
I20
aI18
aI17
aI19
aI11
aI12
aI13
asbasg455
(lp579
I78
aI76
aI80
aI191
aI210
aI171
aI173
aI108
aI125
aI304
aI166
aI264
aI130
aI83
aI140
aI146
asg457
(dp580
g294
g1
(g515
g3
Ntp581
Rp582
(dp583
g519
I9
sg520
I9
sbsg13
g1
(g515
g3
Ntp584
Rp585
(dp586
g519
I5
sg520
I5
sbssg63
I21
sbag110
ag317
asg63
I166
sg64
(lp587
I20
aI17
aI15
aI19
aI10
aI13
aI1
aI6
asbasg455
(lp588
I88
aI124
aI183
aI194
aI219
aI166
aI250
aI305
aI200
aI173
aI95
aI122
aI233
asg457
(dp589
sg63
I9
sbasg63
I219
sg64
(lp590
I2
aI6
aI4
aI8
aI7
asbag1
(g2
g3
Ntp591
Rp592
(dp593
g7
S'Daniel'
p594
sg9
S'See'
p595
sg11
I0
sg12
g294
sg14
S'ysee@andrew.cmu.edu'
p596
sg16
S'2155594157'
p597
sg18
(lp598
g285
asg63
I163
sg64
(lp599
I2
aI1
aI8
asbag358
ag340
ag1
(g2
g3
Ntp600
Rp601
(dp602
g7
S'Yiyang (Maggie)'
p603
sg9
S'Lyu'
p604
sg11
I0
sg12
g13
sg14
S'"yiyangl@andrew'
p605
sg16
S'CIT'
p606
sg18
(lp607
g285
ag51
ag110
asg63
I235
sg64
(lp608
I6
aI1
aI9
aI10
aI4
aI5
aI20
aI21
asbag1
(g2
g3
Ntp609
Rp610
(dp611
g7
S'Jacqueline'
p612
sg9
S'Jiang'
p613
sg11
I0
sg12
g13
sg14
S'xuanj@andrew.cmu.edu'
p614
sg16
S'4127595966'
p615
sg18
(lp616
g285
ag51
ag110
asg63
I233
sg64
(lp617
I6
aI1
aI9
aI10
aI5
aI20
aI21
asbag1
(g2
g3
Ntp618
Rp619
(dp620
g7
S'Damon'
p621
sg9
S'Wong'
p622
sg11
I0
sg12
g294
sg14
S'dtw@andrew.cmu.edu'
p623
sg16
S'4087727199'
p624
sg18
(lp625
g285
asg63
I211
sg64
(lp626
I9
asbag1
(g2
g3
Ntp627
Rp628
(dp629
g7
S'Newton'
p630
sg9
S'Xie'
p631
sg11
I1
sg12
g294
sg14
S'ncx@andrew.cmu.edu'
p632
sg16
S'9089022495'
p633
sg18
(lp634
g285
asg63
I126
sg64
(lp635
I7
aI8
asbag277
ag461
ag1
(g2
g3
Ntp636
Rp637
(dp638
g7
S'Ning-Jiun'
p639
sg9
S'Jan'
p640
sg11
I0
sg12
g13
sg14
S'ningjiun.jan@gmail.com'
p641
sg16
S'7326620618'
p642
sg18
(lp643
g285
asg63
I282
sg64
(lp644
I5
aI21
aI18
asbag1
(g2
g3
Ntp645
Rp646
(dp647
g7
S'David'
p648
sg9
S'Buzzell'
p649
sg11
I1
sg12
g294
sg14
g47
sg16
g48
sg18
(lp650
g285
ag158
asg63
I76
sg64
(lp651
I5
aI21
aI20
asbag1
(g2
g3
Ntp652
Rp653
(dp654
g7
S'Weikun'
p655
sg9
S'Liang'
p656
sg11
I0
sg12
g13
sg14
S'weikunl@andrew.cmu.edu'
p657
sg16
S'4126389865'
p658
sg18
(lp659
g197
ag285
asg63
I230
sg64
(lp660
I11
aI9
aI21
asbag1
(g2
g3
Ntp661
Rp662
(dp663
g7
S'Cynthia'
p664
sg9
S'Lao'
p665
sg11
I0
sg12
g13
sg14
S'clao@andrew.cmu.edu'
p666
sg16
S'9173286589'
p667
sg18
(lp668
g285
ag1
(g20
g3
Ntp669
Rp670
(dp671
g24
I12
sg25
S'Taisha Vargas'
p672
sg27
(lp673
g1
(g2
g3
Ntp674
Rp675
(dp676
g7
S'Taisha'
p677
sg9
S'Vargas'
p678
sg11
I1
sg12
g13
sg14
g47
sg16
g48
sg18
(lp679
g670
ag75
asg63
I86
sg64
(lp680
I10
aI3
asbag1
(g2
g3
Ntp681
Rp682
(dp683
g7
S'Marcus'
p684
sg9
S'Todd'
p685
sg11
I2
sg12
g294
sg14
S'matodd@andrew.cmu.edu'
p686
sg16
S'8458208800'
p687
sg18
(lp688
g670
asg63
I200
sg64
(lp689
I9
aI7
aI5
asbag1
(g2
g3
Ntp690
Rp691
(dp692
g7
S'Grace'
p693
sg9
S'Kao'
p694
sg11
I1
sg12
g13
sg14
S'gek@andrew.cmu.edu'
p695
sg16
S'5176145644'
p696
sg18
(lp697
g670
asg63
I300
sg64
(lp698
I6
aI10
asbag1
(g2
g3
Ntp699
Rp700
(dp701
g7
S'Carrie '
p702
sg9
S'Qiu'
p703
sg11
I0
sg12
g13
sg14
S'carrieq@andrew.cmu.edu'
p704
sg16
S'4125872968'
p705
sg18
(lp706
g97
ag670
asg63
I190
sg64
(lp707
I3
aI2
aI7
asbag1
(g2
g3
Ntp708
Rp709
(dp710
g7
S'Isabella'
p711
sg9
S'Starvaggi'
p712
sg11
I0
sg12
g13
sg14
S'istarvag@andrew.cmu.edu'
p713
sg16
S'1'
p714
sg18
(lp715
g670
ag241
asg63
I156
sg64
(lp716
I18
aI11
asbag1
(g2
g3
Ntp717
Rp718
(dp719
g7
S'Christine'
p720
sg9
S'Zhu'
p721
sg11
I1
sg12
g13
sg14
S'christiz@andrew.cmu.edu'
p722
sg16
S'9177567876'
p723
sg18
(lp724
g670
asg63
I176
sg64
(lp725
I3
aI10
aI9
aI6
asbag1
(g2
g3
Ntp726
Rp727
(dp728
g7
S'Dyanna'
p729
sg9
S'Person'
p730
sg11
I2
sg12
g13
sg14
S'dmp55@pitt.edu'
p731
sg16
S'3018074273'
p732
sg18
(lp733
g670
asg63
I199
sg64
(lp734
I1
aI8
aI14
aI10
aI12
aI18
aI21
aI11
aI6
asbag1
(g2
g3
Ntp735
Rp736
(dp737
g7
S'Roosha'
p738
sg9
S'Mandal'
p739
sg11
I0
sg12
g13
sg14
S'rmandal@andrew.cmu.edu'
p740
sg16
S'4127061406'
p741
sg18
(lp742
g219
ag241
ag670
asg63
I226
sg64
(lp743
I17
aI12
aI10
aI11
aI14
asbag246
ag662
ag1
(g2
g3
Ntp744
Rp745
(dp746
g7
S'Lina'
p747
sg9
S'Sheremet'
p748
sg11
I2
sg12
g13
sg14
S'ashereme@andrew.cmu.edu'
p749
sg16
S'6178331608'
p750
sg18
(lp751
g670
asg63
I268
sg64
(lp752
I8
aI1
aI2
aI5
aI7
aI10
aI13
aI4
aI6
aI3
aI11
aI9
aI14
aI18
asbag1
(g2
g3
Ntp753
Rp754
(dp755
g7
S'Christina'
p756
sg9
S'Ou'
p757
sg11
I1
sg12
g13
sg14
S'cou@andrew.cmu.edu'
p758
sg16
S'9085469708'
p759
sg18
(lp760
g670
asg63
I286
sg64
(lp761
I6
aI1
aI9
aI4
asbasg455
(lp762
I86
aI76
aI95
aI200
aI300
aI190
aI156
aI176
aI199
aI226
aI242
aI268
aI286
aI306
aI312
asg457
(dp763
sg63
I20
sbasg63
I242
sg64
(lp764
sbasg455
(lp765
I85
aI274
aI219
aI163
aI305
aI162
aI183
aI235
aI233
aI211
aI126
aI282
aI99
aI76
aI242
aI230
aI122
aI158
aI166
aI194
aI176
aI241
aI150
aI182
aI200
asg457
(dp766
sg63
I3
sbag184
ag123
ag254
asg63
I99
sg64
(lp767
I21
aI12
aI16
asbag1
(g2
g3
Ntp768
Rp769
(dp770
g7
S'Nancy'
p771
sg9
S'Xiao'
p772
sg11
I0
sg12
g13
sg14
S'nnx@andrew.cmu.edu'
p773
sg16
S'4084395293'
p774
sg18
(lp775
g254
ag158
asg63
I310
sg64
(lp776
I15
aI18
asbag1
(g2
g3
Ntp777
Rp778
(dp779
g7
S'Cari'
p780
sg9
S'Hartigan'
p781
sg11
I0
sg12
g13
sg14
S'chartiga@andrew.cmu.edu'
p782
sg16
S'5108464987'
p783
sg18
(lp784
g184
ag254
asg63
I153
sg64
(lp785
I15
aI17
aI19
asbag429
ag1
(g2
g3
Ntp786
Rp787
(dp788
g7
S'Kristina'
p789
sg9
S'Schiffhauer'
p790
sg11
I0
sg12
g13
sg14
S'kschiffh@andrew.cmu.edu'
p791
sg16
S'585-721-9221'
p792
sg18
(lp793
g241
ag254
asg63
I261
sg64
(lp794
I12
asbasg455
(lp795
I92
aI95
aI164
aI99
aI310
aI91
aI261
aI153
asg457
(dp796
sg63
I13
sbag241
ag219
ag670
ag415
asg63
I95
sg64
(lp797
I17
aI22
asbag429
ag787
ag268
ag163
ag233
ag736
ag1
(g2
g3
Ntp798
Rp799
(dp800
g7
S'Hyeon Ju '
p801
sg9
S'Song'
p802
sg11
I0
sg12
g13
sg14
S'hyeonjus@andrew.cmu.edu'
p803
sg16
S'7322281998'
p804
sg18
(lp805
g110
ag38
ag241
asg63
I254
sg64
(lp806
I7
asbag1
(g2
g3
Ntp807
Rp808
(dp809
g7
S'Suzz'
p810
sg9
S'Glennon'
p811
sg11
I2
sg12
g13
sg14
S'sglennon@andrew.cmu.edu'
p812
sg16
S'6035026290'
p813
sg18
(lp814
g241
asg63
I246
sg64
(lp815
I18
asbag1
(g2
g3
Ntp816
Rp817
(dp818
g7
S'Sarah'
p819
sg9
S'Moss-Horwitz'
p820
sg11
I0
sg12
g13
sg14
S'smosshor@andrew.cmu.edu'
p821
sg16
S'4135888646'
p822
sg18
(lp823
g241
ag219
asg63
I134
sg64
(lp824
I19
aI20
asbag709
ag1
(g2
g3
Ntp825
Rp826
(dp827
g7
S'Elizabeth Ann (Liz)'
p828
sg9
S'Madigan'
p829
sg11
I0
sg12
g13
sg14
S'emadigan@andrew.cmu.edu'
p830
sg16
S'5168497817'
p831
sg18
(lp832
g1
(g20
g3
Ntp833
Rp834
(dp835
g24
I6
sg25
S'Madeleine Hyde'
p836
sg27
(lp837
g1
(g2
g3
Ntp838
Rp839
(dp840
g7
S'Madeleine'
p841
sg9
S'Hyde'
p842
sg11
I0
sg12
g13
sg14
S'mhyde@andrew.cmu.edu'
p843
sg16
S'3013259224'
p844
sg18
(lp845
g834
asg63
I77
sg64
(lp846
sbag1
(g2
g3
Ntp847
Rp848
(dp849
g7
S'Olivia'
p850
sg9
S'Bosquet'
p851
sg11
I2
sg12
g13
sg14
S'oyb@andrew.cmu.edu'
p852
sg16
S'305-793-0977'
p853
sg18
(lp854
g834
asg63
I115
sg64
(lp855
I12
aI11
aI18
aI5
aI13
aI14
aI1
aI8
asbag1
(g2
g3
Ntp856
Rp857
(dp858
g7
S'Margaret'
p859
sg9
S'Edwards'
p860
sg11
I1
sg12
g13
sg14
S'mcedward@andrew.cmu.edu'
p861
sg16
S'4123609424'
p862
sg18
(lp863
g834
ag219
asg63
I127
sg64
(lp864
sbag826
ag1
(g2
g3
Ntp865
Rp866
(dp867
g7
S'Sarah'
p868
sg9
S'Hempton'
p869
sg11
I0
sg12
g13
sg14
S'shempton@andrew.cmu.edu'
p870
sg16
S'858-215-6389'
p871
sg18
(lp872
g834
asg63
I103
sg64
(lp873
sbag1
(g2
g3
Ntp874
Rp875
(dp876
g7
S'Sarah'
p877
sg9
S'Allen'
p878
sg11
I0
sg12
g13
sg14
S'srallen@andrew.cmu.edu'
p879
sg16
S'6505047231'
p880
sg18
(lp881
g834
asg63
I116
sg64
(lp882
sbasg455
(lp883
I77
aI115
aI127
aI136
aI76
aI103
aI116
aI111
asg457
(dp884
sg63
I22
sbag241
asg63
I136
sg64
(lp885
I21
aI13
asbasg455
(lp886
I95
aI91
aI164
aI72
aI157
aI261
aI254
aI246
aI226
aI134
aI156
aI136
aI96
asg457
(dp887
g294
g1
(g515
g3
Ntp888
Rp889
(dp890
g519
I0
sg520
I0
sbsg13
g1
(g515
g3
Ntp891
Rp892
(dp893
g519
I12
sg520
I12
sbssg63
I16
sbasg63
I157
sg64
(lp894
I13
aI12
aI4
aI7
aI11
aI8
asbag211
ag736
ag1
(g2
g3
Ntp895
Rp896
(dp897
g7
S'Calvin'
p898
sg9
S'Chan'
p899
sg11
I0
sg12
g294
sg14
S'ckc1@andrew.cmu.edu'
p900
sg16
S'8083982355'
p901
sg18
(lp902
g219
ag197
asg63
I182
sg64
(lp903
I17
aI20
asbag246
ag1
(g2
g3
Ntp904
Rp905
(dp906
g7
S'Yiru'
p907
sg9
S'Yao'
p908
sg11
I0
sg12
g13
sg14
S'yiruy@andrew.cmu.edu'
p909
sg16
S'4128011980'
p910
sg18
(lp911
g219
ag184
asg63
I225
sg64
(lp912
I17
aI19
asbag259
ag857
ag407
ag817
asg455
(lp913
I83
aI84
aI98
aI226
aI182
aI157
aI95
aI92
aI225
aI127
aI151
aI96
aI260
aI134
aI227
asg457
(dp914
g294
g1
(g515
g3
Ntp915
Rp916
(dp917
g519
I1
sg520
I1
sbsg13
g1
(g515
g3
Ntp918
Rp919
(dp920
g519
I11
sg520
I11
sbssg63
I15
sbasg63
I84
sg64
(lp921
I13
asbag1
(g2
g3
Ntp922
Rp923
(dp924
g7
S'Eric'
p925
sg9
S'Wong'
p926
sg11
I0
sg12
g294
sg14
S'eswong@andrew.cmu.edu'
p927
sg16
S'4084894507'
p928
sg18
(lp929
g197
ag184
asg63
I118
sg64
(lp930
sbag300
ag189
ag1
(g2
g3
Ntp931
Rp932
(dp933
g7
S'Allysa'
p934
sg9
S'Dong'
p935
sg11
I0
sg12
g13
sg14
S'ayd@andrew.cmu.edu'
p936
sg16
S'2012387936'
p937
sg18
(lp938
g184
ag197
asg63
I117
sg64
(lp939
sbag653
ag1
(g2
g3
Ntp940
Rp941
(dp942
g7
S'Judy'
p943
sg9
S'Mai'
p944
sg11
I0
sg12
g13
sg14
S'judym@andrew.cmu.edu'
p945
sg16
S'6462391913'
p946
sg18
(lp947
g197
asg63
I232
sg64
(lp948
sbag1
(g2
g3
Ntp949
Rp950
(dp951
g7
S'DeShawn'
p952
sg9
S'Green'
p953
sg11
I1
sg12
g294
sg14
S'dlgreen@andrew.cmu.edu'
p954
sg16
S'7577759708'
p955
sg18
(lp956
g197
asg63
I312
sg64
(lp957
I7
aI5
aI6
aI2
aI3
aI8
aI11
aI21
aI12
aI20
asbag896
ag1
(g2
g3
Ntp958
Rp959
(dp960
g7
S'neha'
p961
sg9
S'sharma'
p962
sg11
I0
sg12
g13
sg14
S'nehachis@andrew.cmu.edu'
p963
sg16
S'4128013357'
p964
sg18
(lp965
g197
asg63
I281
sg64
(lp966
I5
aI6
aI7
asbag1
(g2
g3
Ntp967
Rp968
(dp969
g7
S'Angie'
p970
sg9
S'Wang'
p971
sg11
I0
sg12
g13
sg14
S'angiewang@cmu.edu'
p972
sg16
S'6507933753'
p973
sg18
(lp974
g51
ag75
ag197
asg63
I260
sg64
(lp975
I12
asbasg455
(lp976
I82
aI84
aI118
aI274
aI117
aI230
aI98
aI182
aI230
aI232
aI312
aI281
aI260
asg457
(dp977
g294
g1
(g515
g3
Ntp978
Rp979
(dp980
g519
I4
sg520
I4
sbsg13
g1
(g515
g3
Ntp981
Rp982
(dp983
g519
I8
sg520
I8
sbssg63
I4
sbag158
ag219
ag184
asg63
I98
sg64
(lp984
I21
aI7
aI2
aI14
aI5
aI3
aI11
aI13
asbag277
ag211
ag778
ag202
ag1
(g2
g3
Ntp985
Rp986
(dp987
g7
S'Nicole'
p988
sg9
S'Ho'
p989
sg11
I0
sg12
g13
sg14
S'ntho@andrew.cmu.edu'
p990
sg16
S'832-465-1011'
p991
sg18
(lp992
g184
ag158
asg63
I308
sg64
(lp993
I13
aI14
asbag233
ag932
ag905
ag387
ag176
ag923
ag224
ag1
(g2
g3
Ntp994
Rp995
(dp996
g7
S'Shawn'
p997
sg9
S'Weng'
p998
sg11
I0
sg12
g13
sg14
S'slweng@andrew.cmu.edu'
p999
sg16
S'9084475495'
p1000
sg18
(lp1001
g184
ag51
ag75
asg63
I243
sg64
(lp1002
I15
aI20
asbag268
asg455
(lp1003
I98
aI99
aI84
aI78
aI153
aI82
aI109
aI308
aI157
aI225
aI118
aI117
aI83
aI243
aI146
aI92
aI278
aI164
aI227
aI270
aI151
aI108
aI246
aI315
aI95
aI80
asg457
(dp1004
sg63
I18
sbasg63
I109
sg64
(lp1005
I1
aI21
asbag1
(g2
g3
Ntp1006
Rp1007
(dp1008
g7
S'Anny '
p1009
sg9
S'Fan'
p1010
sg11
I1
sg12
g13
sg14
S'afan@andrew.cmu.edu'
p1011
sg16
S'609-721-1939'
p1012
sg18
(lp1013
g171
asg63
I146
sg64
(lp1014
I21
aI5
aI10
asbag163
ag1
(g2
g3
Ntp1015
Rp1016
(dp1017
g7
S'Cortney'
p1018
sg9
S'Padua'
p1019
sg11
I1
sg12
g13
sg14
S'cpadua@andrew.cmu.edu'
p1020
sg16
S'5103506319'
p1021
sg18
(lp1022
g171
asg63
I278
sg64
(lp1023
I12
aI18
aI10
asbag67
ag1
(g2
g3
Ntp1024
Rp1025
(dp1026
g7
S'Carter'
p1027
sg9
S'Nelson'
p1028
sg11
I0
sg12
g294
sg14
S'cjnelson@andrew.cmu.edu'
p1029
sg16
S'9144069690'
p1030
sg18
(lp1031
g171
asg63
I193
sg64
(lp1032
I11
aI10
asbag1
(g2
g3
Ntp1033
Rp1034
(dp1035
g7
S'Chaya'
p1036
sg9
S'Wurman'
p1037
sg11
I0
sg12
g13
sg14
S'cwurman@andrew.cmu.edu'
p1038
sg16
S'720 475 0753'
p1039
sg18
(lp1040
g22
ag123
ag171
asg63
I107
sg64
(lp1041
I18
aI21
asbasg455
(lp1042
I318
aI107
aI109
aI146
aI72
aI278
aI93
aI193
aI78
aI84
aI73
aI92
aI246
aI243
aI95
aI164
asg457
(dp1043
g294
g1
(g515
g3
Ntp1044
Rp1045
(dp1046
g519
I1
sg520
I1
sbsg13
g1
(g515
g3
Ntp1047
Rp1048
(dp1049
g519
I7
sg520
I7
sbssg63
I14
sbag241
asg63
I72
sg64
(lp1050
I3
aI18
aI13
asbag1
(g2
g3
Ntp1051
Rp1052
(dp1053
g7
S'Nicole'
p1054
sg9
S'Nyman'
p1055
sg11
I0
sg12
g13
sg14
S'nbn@andrew.cmu.edu'
p1056
sg16
S'(412) 855 0759'
p1057
sg18
(lp1058
g158
ag123
asg63
I73
sg64
(lp1059
I18
asbag1
(g2
g3
Ntp1060
Rp1061
(dp1062
g7
S'Sandy'
p1063
sg9
S'Jiang'
p1064
sg11
I0
sg12
g13
sg14
g47
sg16
g48
sg18
(lp1065
g22
ag123
ag158
asg63
I75
sg64
(lp1066
I21
aI18
asbag150
ag189
ag211
ag1
(g2
g3
Ntp1067
Rp1068
(dp1069
g7
S'Jade'
p1070
sg9
S'Crockem'
p1071
sg11
I1
sg12
g13
sg14
S'jcrockem@andrew.cmu.edu'
p1072
sg16
S'7133014687'
p1073
sg18
(lp1074
g158
asg63
I315
sg64
(lp1075
I14
aI18
aI10
aI1
asbag470
ag224
ag646
ag986
ag769
asg455
(lp1076
I72
aI73
aI75
aI318
aI92
aI98
aI84
aI164
aI315
aI168
aI83
aI226
aI76
aI308
aI310
aI95
aI127
aI128
aI91
aI157
aI227
asg457
(dp1077
sg63
I12
sbag171
asg63
I318
sg64
(lp1078
I11
aI10
aI8
aI2
aI1
aI18
asbag1
(g2
g3
Ntp1079
Rp1080
(dp1081
g7
S'Annie'
p1082
sg9
S'Cheng'
p1083
sg11
I1
sg12
g13
sg14
S'anniec1@andrew.cmu.edu'
p1084
sg16
S'8053388808'
p1085
sg18
(lp1086
g136
asg63
I259
sg64
(lp1087
I8
aI1
aI6
asbag387
ag1
(g2
g3
Ntp1088
Rp1089
(dp1090
g7
S'Graham'
p1091
sg9
S'Arthur'
p1092
sg11
I0
sg12
g294
sg14
S'garthur@andrew.cmu.edu'
p1093
sg16
S'2'
p1094
sg18
(lp1095
g22
ag136
asg63
I280
sg64
(lp1096
I8
aI13
asbag1
(g2
g3
Ntp1097
Rp1098
(dp1099
g7
S'Emily'
p1100
sg9
S'Helfer'
p1101
sg11
I0
sg12
g13
sg14
S'ehelfer@andrew.cmu.edu'
p1102
sg16
S'3306718127'
p1103
sg18
(lp1104
g136
ag38
asg63
I209
sg64
(lp1105
I20
aI11
aI6
asbag1
(g2
g3
Ntp1106
Rp1107
(dp1108
g7
S'Brian'
p1109
sg9
S'Chen'
p1110
sg11
I0
sg12
g294
sg14
S'bschen@andrew.cmu.edu'
p1111
sg16
S'6469572290'
p1112
sg18
(lp1113
g22
ag38
ag136
asg63
I158
sg64
(lp1114
sbag1
(g2
g3
Ntp1115
Rp1116
(dp1117
g7
S'Katherine'
p1118
sg9
S'Wang'
p1119
sg11
I0
sg12
g13
sg14
S'kyw1@andrew.cmu.edu'
p1120
sg16
S'732-610-3403'
p1121
sg18
(lp1122
g22
ag136
asg63
I218
sg64
(lp1123
I7
aI3
asbasg455
(lp1124
I94
aI78
aI224
aI280
aI158
aI318
aI76
aI259
aI209
aI218
asg457
(dp1125
g294
g1
(g515
g3
Ntp1126
Rp1127
(dp1128
g519
I2
sg520
I2
sbsg13
g1
(g515
g3
Ntp1129
Rp1130
(dp1131
g519
I12
sg520
I12
sbssg63
I5
sbag110
ag123
ag38
asg63
I94
sg64
(lp1132
sbag1
(g2
g3
Ntp1133
Rp1134
(dp1135
g7
S'Leann'
p1136
sg9
S'Bahi'
p1137
sg11
I0
sg12
g13
sg14
S'lbahi@andrew.cmu.edu'
p1138
sg16
S'(650)305-1043'
p1139
sg18
(lp1140
g22
ag123
ag110
asg63
I79
sg64
(lp1141
I3
asbag1061
ag115
ag1034
ag176
ag1
(g2
g3
Ntp1142
Rp1143
(dp1144
g7
S'Sara'
p1145
sg9
S'Deluty'
p1146
sg11
I0
sg12
g13
sg14
S'sdeluty@andrew.cmu.edu'
p1147
sg16
S'9083343349'
p1148
sg18
(lp1149
g22
ag123
asg63
I110
sg64
(lp1150
I8
aI2
aI10
asbag553
ag277
ag1052
asg455
(lp1151
I94
aI79
aI75
aI80
aI107
aI109
aI110
aI130
aI73
aI99
asg457
(dp1152
sg63
I11
sbag382
asg63
I80
sg64
(lp1153
I7
aI2
aI3
aI4
aI5
aI6
aI9
aI10
aI13
aI18
aI14
aI20
asbag67
ag290
ag322
ag331
ag141
ag610
ag601
ag799
ag128
ag1134
ag1
(g2
g3
Ntp1154
Rp1155
(dp1156
g7
S'Katherine'
p1157
sg9
S'Kim'
p1158
sg11
I2
sg12
g13
sg14
S'katherik@andrew.cmu.edu'
p1159
sg16
S'3237172857'
p1160
sg18
(lp1161
g110
asg63
I135
sg64
(lp1162
I7
aI1
aI3
aI10
aI5
aI6
asbag102
ag376
asg455
(lp1163
I80
aI93
aI85
aI88
aI124
aI224
aI233
aI235
aI254
aI94
aI79
aI135
aI87
aI166
aI218
aI78
aI151
aI236
aI167
aI259
asg457
(dp1164
sg63
I8
sbasg63
I87
sg64
(lp1165
sbag1
(g2
g3
Ntp1166
Rp1167
(dp1168
g7
S'Erin'
p1169
sg9
S'Persson'
p1170
sg11
I0
sg12
g13
sg14
S'etp@andrew.cmu.edu'
p1171
sg16
S'2104752122'
p1172
sg18
(lp1173
g97
asg63
I317
sg64
(lp1174
sbag1
(g2
g3
Ntp1175
Rp1176
(dp1177
g7
S'Sabrina'
p1178
sg9
S'Liu'
p1179
sg11
I0
sg12
g13
sg14
S'smliu@andrew.cmu.edu'
p1180
sg16
S'4124989046'
p1181
sg18
(lp1182
g22
ag38
ag97
asg63
I101
sg64
(lp1183
I6
aI5
asbag1
(g2
g3
Ntp1184
Rp1185
(dp1186
g7
S'Erica'
p1187
sg9
S'Huang'
p1188
sg11
I0
sg12
g13
sg14
S'ericahua@andrew.cmu.edu'
p1189
sg16
S'7322847570'
p1190
sg18
(lp1191
g22
ag97
asg63
I212
sg64
(lp1192
I8
aI6
aI5
aI11
asbag1
(g2
g3
Ntp1193
Rp1194
(dp1195
g7
S'sonali'
p1196
sg9
S'avlani'
p1197
sg11
I1
sg12
g13
sg14
S'savlani@andrew.cmu.edu'
p1198
sg16
S'408-660-5626'
p1199
sg18
(lp1200
g97
ag51
asg63
I236
sg64
(lp1201
I8
aI2
aI1
aI6
asbag1
(g2
g3
Ntp1202
Rp1203
(dp1204
g7
S'Sasha'
p1205
sg9
S'Kirshon'
p1206
sg11
I0
sg12
g13
sg14
g47
sg16
g48
sg18
(lp1207
g22
ag97
asg63
I283
sg64
(lp1208
I8
aI5
asbag1
(g2
g3
Ntp1209
Rp1210
(dp1211
g7
S'Molly'
p1212
sg9
S'Chou'
p1213
sg11
I1
sg12
g13
sg14
S'mollyc@andrew.cmu.edu'
p1214
sg16
S'4088235549'
p1215
sg18
(lp1216
g38
ag97
asg63
I285
sg64
(lp1217
I5
asbag1
(g2
g3
Ntp1218
Rp1219
(dp1220
g7
S'Roma'
p1221
sg9
S'Scarano'
p1222
sg11
I0
sg12
g13
sg14
S'rscarano@andrew.cmu.edu'
p1223
sg16
S'9143558326'
p1224
sg18
(lp1225
g22
ag97
asg63
I192
sg64
(lp1226
I2
aI5
asbag5
ag89
ag700
ag30
asg455
(lp1227
I87
aI317
aI101
aI192
aI212
aI236
aI283
aI285
aI71
aI152
aI190
aI301
aI302
aI89
aI243
aI91
asg457
(dp1228
sg63
I10
sbasg63
I152
sg64
(lp1229
I7
aI5
aI14
aI1
aI8
aI20
aI3
asbag202
ag562
ag675
ag1
(g2
g3
Ntp1230
Rp1231
(dp1232
g7
S'Max'
p1233
sg9
S'Mirho'
p1234
sg11
I1
sg12
g294
sg14
S'mmirho@andrew.cmu.edu'
p1235
sg16
S'971-373-0332'
p1236
sg18
(lp1237
g75
asg63
I172
sg64
(lp1238
I1
asbag1
(g2
g3
Ntp1239
Rp1240
(dp1241
g7
S'Elizabeth'
p1242
sg9
S'Elrod'
p1243
sg11
I0
sg12
g13
sg14
S'eelrod@andrew.cmu.edu'
p1244
sg16
S'7132941466'
p1245
sg18
(lp1246
g75
asg63
I145
sg64
(lp1247
I1
aI21
aI13
asbag1
(g2
g3
Ntp1248
Rp1249
(dp1250
g7
S'Meera'
p1251
sg9
S'Patel'
p1252
sg11
I1
sg12
g13
sg14
S'mvpatel@andrew.cmu.edu'
p1253
sg16
S'2709912004'
p1254
sg18
(lp1255
g75
asg63
I174
sg64
(lp1256
I9
asbag968
ag995
ag349
asg455
(lp1257
I89
aI82
aI93
aI152
aI173
aI218
aI243
aI86
aI172
aI145
aI173
aI174
aI218
aI250
aI260
aI268
aI271
aI284
aI207
asg457
(dp1258
sg63
I6
sbag51
ag110
ag171
asg63
I93
sg64
(lp1259
I9
aI3
aI13
aI11
asbag1
(g2
g3
Ntp1260
Rp1261
(dp1262
g7
S'Yufan'
p1263
sg9
S'Wang'
p1264
sg11
I1
sg12
g13
sg14
S'yufanw@andrew.cmu.edu'
p1265
sg16
S'4122188677'
p1266
sg18
(lp1267
g51
asg63
I139
sg64
(lp1268
I8
aI6
aI5
aI1
aI10
aI18
aI21
aI12
asbag610
ag601
ag1
(g2
g3
Ntp1269
Rp1270
(dp1271
g7
S'Brian'
p1272
sg9
S'Li'
p1273
sg11
I0
sg12
g294
sg14
S'bjli@andrew.cmu.edu'
p1274
sg16
S'9785057460'
p1275
sg18
(lp1276
g51
asg63
I237
sg64
(lp1277
I10
aI9
aI2
asbag968
ag1194
ag1
(g2
g3
Ntp1278
Rp1279
(dp1280
g7
S'Catherine'
p1281
sg9
S'Mondoa'
p1282
sg11
I1
sg12
g13
sg14
S'cmondoa@andrew.cmu.edu'
p1283
sg16
S'2404291944'
p1284
sg18
(lp1285
g51
asg63
I125
sg64
(lp1286
I21
aI18
aI14
asbag1
(g2
g3
Ntp1287
Rp1288
(dp1289
g7
S'Jin'
p1290
sg9
S'Fang'
p1291
sg11
I0
sg12
g13
sg14
S'jfang1@andrew.cmu.edu'
p1292
sg16
S'9737221507'
p1293
sg18
(lp1294
g51
asg63
I185
sg64
(lp1295
I3
aI4
aI8
aI1
aI9
asbag995
ag1
(g2
g3
Ntp1296
Rp1297
(dp1298
g7
S'Dina'
p1299
sg9
S'Chen'
p1300
sg11
I0
sg12
g13
sg14
S'dinac@andrew.cmu.edu'
p1301
sg16
g443
sg18
(lp1302
g51
asg63
I122
sg64
(lp1303
I9
aI2
aI8
asbag358
asg455
(lp1304
I81
aI71
aI74
aI93
aI139
aI233
aI235
aI236
aI237
aI260
aI218
aI125
aI122
aI185
aI243
aI305
aI137
aI89
aI242
aI312
aI319
asg457
(dp1305
sg63
I7
sbasg63
I74
sg64
(lp1306
I5
aI3
aI8
asbag1176
ag1
(g2
g3
Ntp1307
Rp1308
(dp1309
g7
S'Sabrina'
p1310
sg9
S'Clarke'
p1311
sg11
I0
sg12
g13
sg14
S'sclarke@andrew.cmu.edu'
p1312
sg16
g714
sg18
(lp1313
g22
ag38
asg63
I105
sg64
(lp1314
sbag1
(g2
g3
Ntp1315
Rp1316
(dp1317
g7
S'Jaebin'
p1318
sg9
S'Park'
p1319
sg11
I1
sg12
g294
sg14
S'jaebinp@andrew.cmu.edu'
p1320
sg16
S'6033036336'
p1321
sg18
(lp1322
g38
asg63
I188
sg64
(lp1323
I3
aI5
aI1
asbag1107
ag1
(g2
g3
Ntp1324
Rp1325
(dp1326
g7
S'Michelle'
p1327
sg9
S'Ong'
p1328
sg11
I0
sg12
g13
sg14
S'mong@andrew.cmu.edu'
p1329
sg16
S'4122517959'
p1330
sg18
(lp1331
g22
ag38
asg63
I309
sg64
(lp1332
sbag1210
ag30
ag1
(g2
g3
Ntp1333
Rp1334
(dp1335
g7
S'Steffen'
p1336
sg9
S'Holm'
p1337
sg11
I0
sg12
g294
sg14
S'saholm@andrew.cmu.edu'
p1338
sg16
S'8587316501'
p1339
sg18
(lp1340
g22
ag38
asg63
I284
sg64
(lp1341
I5
aI6
aI20
asbag128
ag340
ag1098
ag799
ag553
ag1
(g2
g3
Ntp1342
Rp1343
(dp1344
g7
S'Courtney'
p1345
sg9
S'Thier'
p1346
sg11
I0
sg12
g13
sg14
S'cthier@andrew.cmu.edu'
p1347
sg16
S'412-225-7317'
p1348
sg18
(lp1349
g22
ag38
asg63
I302
sg64
(lp1350
I7
asbag1
(g2
g3
Ntp1351
Rp1352
(dp1353
g7
S'Jibby'
p1354
sg9
S'Ayo-Ani'
p1355
sg11
I2
sg12
g13
sg14
S'osa@andrew.cmu.edu'
p1356
sg16
S'3012574428'
p1357
sg18
(lp1358
g38
asg63
I262
sg64
(lp1359
sbasg455
(lp1360
I71
aI74
aI101
aI105
aI188
aI158
aI309
aI284
aI94
aI285
aI301
aI302
aI209
aI183
aI254
aI130
aI262
aI242
aI243
aI260
aI274
aI76
asg457
(dp1361
sg63
I2
sbag97
asg63
I301
sg64
(lp1362
I3
aI12
aI11
asbag115
ag1
(g2
g3
Ntp1363
Rp1364
(dp1365
g7
S'Alisha'
p1366
sg9
S'Mayor'
p1367
sg11
I1
sg12
g13
sg14
S'amayor@andrew.cmu.edu'
p1368
sg16
S'4088269736'
p1369
sg18
(lp1370
g22
asg63
I307
sg64
(lp1371
I5
aI10
aI8
aI7
aI12
aI21
asbag1343
ag5
ag43
ag1
(g2
g3
Ntp1372
Rp1373
(dp1374
g7
S'Jaclyn '
p1375
sg9
S'Zois '
p1376
sg11
I1
sg12
g13
sg14
S'jzois@andrew.cmu.edu'
p1377
sg16
S'508-479-5254'
p1378
sg18
(lp1379
g22
asg63
I270
sg64
(lp1380
I18
asbag1061
ag1176
ag1143
ag1308
ag1089
ag1334
ag1107
ag1325
ag102
ag290
ag1134
ag1
(g2
g3
Ntp1381
Rp1382
(dp1383
g7
S'Gillan'
p1384
sg9
S'Johnson'
p1385
sg11
I1
sg12
g13
sg14
S'gkj@andrew.cmu.edu'
p1386
sg16
S'202-384-0102'
p1387
sg18
(lp1388
g22
asg63
I311
sg64
(lp1389
I10
aI5
asbag1185
ag1203
ag1219
ag1034
ag526
ag1
(g2
g3
Ntp1390
Rp1391
(dp1392
g7
S'Victoria'
p1393
sg9
S'Van Benschoten'
p1394
sg11
I1
sg12
g13
sg14
S'vvanbens@andrew.cmu.edu'
p1395
sg16
S'6145574170'
p1396
sg18
(lp1397
g22
asg63
I108
sg64
(lp1398
I21
asbag141
ag331
ag1116
asg455
(lp1399
I301
aI80
aI307
aI302
aI71
aI74
aI270
aI75
aI101
aI110
aI105
aI280
aI284
aI158
aI309
aI87
aI85
aI79
aI311
aI151
aI212
aI283
aI192
aI107
aI304
aI259
aI108
aI224
aI124
aI218
aI207
aI257
aI166
asg457
(dp1400
sg63
I1
sbag38
ag51
ag97
asg63
I71
sg64
(lp1401
I5
aI8
aI3
aI11
aI6
asbsI72
g163
sI73
g1052
sI74
g43
sI75
g1061
sI76
g646
sI77
g839
sI78
g387
sI79
g1134
sI80
g115
sI81
g56
sI82
g202
sI83
g224
sI84
g211
sI85
g290
sI86
g675
sI87
g102
sI88
g322
sI89
g80
sI91
g429
sI92
g259
sI93
g67
sI94
g128
sI95
g246
sI96
g407
sI97
g420
sI98
g189
sI99
g277
sI101
g1176
sI103
g866
sI105
g1308
sI107
g1034
sI108
g1391
sI109
g176
sI110
g1143
sI111
g1
(g2
g3
Ntp1402
Rp1403
(dp1404
g7
S'Cheryl'
p1405
sg9
S'Bond'
p1406
sg11
I1
sg12
g13
sg14
S'cbond@andrew.cmu.edu'
p1407
sg16
S'5628898872'
p1408
sg18
(lp1409
sg63
I111
sg64
(lp1410
I22
asbsI113
g1
(g2
g3
Ntp1411
Rp1412
(dp1413
g7
S'Danielle'
p1414
sg9
S'Quan'
p1415
sg11
I1
sg12
g13
sg14
S'dquan@andrew.cmu.edu'
p1416
sg16
S'9162136370'
p1417
sg18
(lp1418
sg63
I113
sg64
(lp1419
I22
asbsI114
g1
(g2
g3
Ntp1420
Rp1421
(dp1422
g7
S'Nicholas'
p1423
sg9
S'Medich'
p1424
sg11
I1
sg12
g294
sg14
S'nmedich@andrew.cmu.edu'
p1425
sg16
S'4124459857'
p1426
sg18
(lp1427
sg63
I114
sg64
(lp1428
I22
asbsI115
g848
sI116
g875
sI117
g932
sI118
g923
sI121
g1
(g2
g3
Ntp1429
Rp1430
(dp1431
g7
S'Danny'
p1432
sg9
S'Zhu'
p1433
sg11
I1
sg12
g294
sg14
S'dannyz@andrew.cmu.edu'
p1434
sg16
S'3479483948'
p1435
sg18
(lp1436
sg63
I121
sg64
(lp1437
I22
asbsI122
g1297
sI124
g331
sI125
g1279
sI126
g628
sI127
g857
sI128
g1
(g2
g3
Ntp1438
Rp1439
(dp1440
g7
S'Charmaine'
p1441
sg9
S'Yau'
p1442
sg11
I3
sg12
g13
sg14
S'cyau@andrew.cmu.edu'
p1443
sg16
S'4127594012'
p1444
sg18
(lp1445
sg63
I128
sg64
(lp1446
I11
aI2
aI8
aI12
aI4
aI13
aI5
aI10
asbsI130
g553
sI131
g1
(g2
g3
Ntp1447
Rp1448
(dp1449
g7
S'Nikita'
p1450
sg9
S'Sharma'
p1451
sg11
I3
sg12
g13
sg14
S'ndsharma@andrew.cmu.edu'
p1452
sg16
S'904-303-2660'
p1453
sg18
(lp1454
sg63
I131
sg64
(lp1455
I8
aI7
aI5
aI6
aI1
aI20
aI10
aI4
aI14
aI21
aI9
aI11
asbsI132
g1
(g2
g3
Ntp1456
Rp1457
(dp1458
g7
S'Nika'
p1459
sg9
S'Postnikov'
p1460
sg11
I2
sg12
g13
sg14
S'npostnik@andrew.cmu.edu'
p1461
sg16
S'917-535-4739'
p1462
sg18
(lp1463
sg63
I132
sg64
(lp1464
I14
aI8
aI11
aI18
aI5
aI20
asbsI133
g1
(g2
g3
Ntp1465
Rp1466
(dp1467
g7
S'Angela'
p1468
sg9
S'Ng'
p1469
sg11
I2
sg12
g13
sg14
S'angelan@andrew.cmu.edu'
p1470
sg16
S'2489469155'
p1471
sg18
(lp1472
sg63
I133
sg64
(lp1473
I11
aI12
aI8
aI2
aI1
aI5
aI13
aI21
asbsI134
g817
sI135
g1155
sI136
g826
sI137
g1
(g2
g3
Ntp1474
Rp1475
(dp1476
g7
S'Lewis'
p1477
sg9
S'Li'
p1478
sg11
I1
sg12
g294
sg14
S'jieming1@andrew.cmu.edu'
p1479
sg16
S'4127608831'
p1480
sg18
(lp1481
sg63
I137
sg64
(lp1482
I7
aI1
asbsI139
g1261
sI140
g571
sI141
g1
(g2
g3
Ntp1483
Rp1484
(dp1485
g7
S'Rebecca'
p1486
sg9
S'Kalmeijer'
p1487
sg11
I2
sg12
g13
sg14
S'rkalmeij@andrew.cmu.edu'
p1488
sg16
g443
sg18
(lp1489
sg63
I141
sg64
(lp1490
I21
aI11
aI4
aI5
aI20
aI3
aI2
asbsI145
g1240
sI146
g1007
sI147
g1
(g2
g3
Ntp1491
Rp1492
(dp1493
g7
S'Zichen'
p1494
sg9
S'Liu'
p1495
sg11
I2
sg12
g13
sg14
S'zichenl@andrew.cmu.edu'
p1496
sg16
S'9143127298'
p1497
sg18
(lp1498
sg63
I147
sg64
(lp1499
I8
aI11
aI12
aI14
aI7
aI5
aI6
aI15
aI21
asbsI148
g1
(g2
g3
Ntp1500
Rp1501
(dp1502
g7
S'saloni'
p1503
sg9
S'saxena'
p1504
sg11
I2
sg12
g13
sg14
S'salonis@andrew.cmu.edu'
p1505
sg16
S'2016478412'
p1506
sg18
(lp1507
sg63
I148
sg64
(lp1508
I1
aI8
aI5
aI7
aI6
aI2
aI10
asbsI149
g1
(g2
g3
Ntp1509
Rp1510
(dp1511
g7
S'Ariana'
p1512
sg9
S'Zahedi'
p1513
sg11
I1
sg12
g13
sg14
S'azahedi@andrew.cmu.edu'
p1514
sg16
S'617-999-9308'
p1515
sg18
(lp1516
sg63
I149
sg64
(lp1517
I3
aI8
aI18
aI7
asbsI150
g1
(g2
g3
Ntp1518
Rp1519
(dp1520
g7
S'Yuchien (Bettina) '
p1521
sg9
S'Chou'
p1522
sg11
I2
sg12
g13
sg14
S'yuchienc@andrew.cmu.edu'
p1523
sg16
S'9739346866'
p1524
sg18
(lp1525
sg63
I150
sg64
(lp1526
I10
aI9
aI7
aI2
aI3
aI6
aI5
aI4
asbsI151
g1
(g2
g3
Ntp1527
Rp1528
(dp1529
g7
S'Vibhav'
p1530
sg9
S'Ganesh'
p1531
sg11
I2
sg12
g294
sg14
S'vnganesh@andrew.cmu.edu'
p1532
sg16
S'8322781752'
p1533
sg18
(lp1534
sg63
I151
sg64
(lp1535
I15
aI1
aI10
asbsI152
g89
sI153
g778
sI154
g1
(g2
g3
Ntp1536
Rp1537
(dp1538
g7
S'Kelly '
p1539
sg9
S'Underwood'
p1540
sg11
I3
sg12
g13
sg14
S'kcu@andrew.cmu.edu'
p1541
sg16
S'2022302287'
p1542
sg18
(lp1543
sg63
I154
sg64
(lp1544
I1
aI8
aI3
aI10
aI20
aI2
aI21
aI5
aI6
aI7
aI13
aI9
aI4
aI11
asbsI155
g1
(g2
g3
Ntp1545
Rp1546
(dp1547
g7
S'Chantal'
p1548
sg9
S'Striepe'
p1549
sg11
I3
sg12
g13
sg14
S'cstriepe@andrew.cmu.edu'
p1550
sg16
g443
sg18
(lp1551
sg63
I155
sg64
(lp1552
I20
aI4
aI8
aI14
aI9
aI1
aI21
aI10
aI11
aI16
aI2
aI7
aI5
aI12
asbsI156
g709
sI157
g233
sI158
g1107
sI162
g461
sI163
g592
sI164
g268
sI166
g376
sI167
g1
(g2
g3
Ntp1553
Rp1554
(dp1555
g7
S'Lilian'
p1556
sg9
S'Chin'
p1557
sg11
I2
sg12
g13
sg14
S'lschin@andrew.cmu.edu'
p1558
sg16
S'5106486818'
p1559
sg18
(lp1560
sg63
I167
sg64
(lp1561
I5
aI3
aI1
aI2
aI10
aI8
asbsI168
g470
sI171
g396
sI172
g1231
sI173
g562
sI174
g1249
sI176
g718
sI182
g896
sI183
g340
sI185
g1288
sI186
g488
sI187
g1
(g2
g3
Ntp1562
Rp1563
(dp1564
g7
S'Grant'
p1565
sg9
S'Schwabacher'
p1566
sg11
I1
sg12
g294
sg14
S'gschwaba@andrew.cmu.edu'
p1567
sg16
S'2032163973'
p1568
sg18
(lp1569
sg63
I187
sg64
(lp1570
I17
aI19
aI18
aI15
asbsI188
g1316
sI189
g1
(g2
g3
Ntp1571
Rp1572
(dp1573
g7
S'Paige'
p1574
sg9
S'Thompson'
p1575
sg11
I1
sg12
g13
sg14
S'pathomps@andrew.cmu.edu'
p1576
sg16
S'8452698905'
p1577
sg18
(lp1578
sg63
I189
sg64
(lp1579
I5
aI6
aI10
aI7
aI8
aI1
aI2
aI20
aI14
asbsI190
g700
sI191
g535
sI192
g1219
sI193
g1025
sI194
g367
sI195
g1
(g2
g3
Ntp1580
Rp1581
(dp1582
g7
S'Rufeng'
p1583
sg9
S'Ji'
p1584
sg11
I1
sg12
g294
sg14
S'rufengj@andrew.cmu.edu'
p1585
sg16
S'2486869930'
p1586
sg18
(lp1587
sg63
I195
sg64
(lp1588
I3
aI9
aI7
aI4
aI2
asbsI197
g1
(g2
g3
Ntp1589
Rp1590
(dp1591
g7
S'Jessica '
p1592
sg9
S'Shen'
p1593
sg11
I2
sg12
g13
sg14
S'jshen1@andrew.cmu.edu'
p1594
sg16
S'6262433998'
p1595
sg18
(lp1596
sg63
I197
sg64
(lp1597
I14
aI5
aI6
aI8
aI7
aI1
aI18
asbsI198
g1
(g2
g3
Ntp1598
Rp1599
(dp1600
g7
S'Andrew'
p1601
sg9
S'Capodieci'
p1602
sg11
I1
sg12
g294
sg14
S'andrew.capodieci@gmail.com'
p1603
sg16
S''
p1604
sg18
(lp1605
sg63
I198
sg64
(lp1606
I1
asbsI199
g727
sI200
g682
sI205
g479
sI206
g1
(g2
g3
Ntp1607
Rp1608
(dp1609
g7
S'Nandini'
p1610
sg9
S'Ramakrishnan'
p1611
sg11
I2
sg12
g13
sg14
S'nramakri@andrew.cmu.edu'
p1612
sg16
S'4128778008'
p1613
sg18
(lp1614
sg63
I206
sg64
(lp1615
I1
aI8
aI2
aI11
aI4
aI21
aI5
aI18
asbsI207
g1
(g2
g3
Ntp1616
Rp1617
(dp1618
g7
S'Alisa'
p1619
sg9
S'Adwaney'
p1620
sg11
I2
sg12
g13
sg14
S'aadwaney@andrew.cmu.edu'
p1621
sg16
S'732-318-1902'
p1622
sg18
(lp1623
sg63
I207
sg64
(lp1624
I1
aI8
aI11
aI5
aI21
aI10
aI2
aI7
asbsI208
g1
(g2
g3
Ntp1625
Rp1626
(dp1627
g7
S'Erik'
p1628
sg9
S'Pintar'
p1629
sg11
I1
sg12
g294
sg14
S'epintar@andrew.cmu.edu'
p1630
sg16
S'414-897-4261'
p1631
sg18
(lp1632
sg63
I208
sg64
(lp1633
I5
asbsI209
g1098
sI210
g544
sI211
g619
sI212
g1185
sI213
g1
(g2
g3
Ntp1634
Rp1635
(dp1636
g7
S'Jude'
p1637
sg9
S'Caminos'
p1638
sg11
I3
sg12
g294
sg14
S'gcaminos@andrew.cmu.edu'
p1639
sg16
S'6104426889'
p1640
sg18
(lp1641
sg63
I213
sg64
(lp1642
I5
aI1
aI10
aI2
aI7
asbsI214
g1
(g2
g3
Ntp1643
Rp1644
(dp1645
g7
S'Gabriela'
p1646
sg9
S'Cach'
p1647
sg11
I2
sg12
g13
sg14
S'gcach@andrew.cmu.edu'
p1648
sg16
S'3234972589'
p1649
sg18
(lp1650
sg63
I214
sg64
(lp1651
I1
aI8
asbsI217
g1
(g2
g3
Ntp1652
Rp1653
(dp1654
g7
S'Elizabeth'
p1655
sg9
S'Kuo'
p1656
sg11
I2
sg12
g13
sg14
S'efk@andrew.cmu.edu'
p1657
sg16
S'6467532354'
p1658
sg18
(lp1659
sg63
I217
sg64
(lp1660
I5
aI10
aI7
aI8
aI11
aI1
aI2
asbsI218
g1116
sI219
g309
sI220
g1
(g2
g3
Ntp1661
Rp1662
(dp1663
g7
S'Sheril'
p1664
sg9
S'Christopher'
p1665
sg11
I1
sg12
g13
sg14
S'spchrist@andrew.cmu.edu'
p1666
sg16
S'6099037071'
p1667
sg18
(lp1668
sg63
I220
sg64
(lp1669
I20
aI8
aI5
aI1
aI6
aI2
asbsI221
g1
(g2
g3
Ntp1670
Rp1671
(dp1672
g7
S'Jenny'
p1673
sg9
S'Wong'
p1674
sg11
I2
sg12
g13
sg14
S'jennyw@andrew.cmu.edu'
p1675
sg16
S'646 436 1645'
p1676
sg18
(lp1677
sg63
I221
sg64
(lp1678
I7
aI4
aI10
aI5
aI2
aI8
aI17
aI21
aI18
asbsI224
g141
sI225
g905
sI226
g736
sI227
g1
(g2
g3
Ntp1679
Rp1680
(dp1681
g7
S'Lilli'
p1682
sg9
S'Choung'
p1683
sg11
I2
sg12
g13
sg14
S'lchoung@andrew.cmu.edu'
p1684
sg16
S'5109962688'
p1685
sg18
(lp1686
sg63
I227
sg64
(lp1687
I12
aI21
aI14
aI15
aI18
aI8
aI7
aI13
asbsI228
g1
(g2
g3
Ntp1688
Rp1689
(dp1690
g7
S'Eileen'
p1691
sg9
S'Jiang'
p1692
sg11
I2
sg12
g13
sg14
S'yuanj@andrew.cmu.edu'
p1693
sg16
S'9253308532'
p1694
sg18
(lp1695
sg63
I228
sg64
(lp1696
I7
aI1
aI5
aI8
aI18
aI14
aI11
asbsI229
g1
(g2
g3
Ntp1697
Rp1698
(dp1699
g7
S'Kai'
p1700
sg9
S'Hernandez'
p1701
sg11
I2
sg12
g294
sg14
S'kjhernan@andrew.cmu.edu'
p1702
sg16
S'4074175029'
p1703
sg18
(lp1704
sg63
I229
sg64
(lp1705
I5
aI1
aI8
aI6
aI10
aI18
aI3
aI7
asbsI230
g653
sI231
g1
(g2
g3
Ntp1706
Rp1707
(dp1708
g7
S'Aditya '
p1709
sg9
S'Dargan'
p1710
sg11
I3
sg12
g294
sg14
S'adargan@andrew.cmu.edu'
p1711
sg16
g714
sg18
(lp1712
sg63
I231
sg64
(lp1713
I1
aI8
aI20
aI6
aI10
aI9
aI3
aI11
aI5
asbsI232
g941
sI233
g610
sI235
g601
sI236
g1194
sI237
g1270
sI238
g1
(g2
g3
Ntp1714
Rp1715
(dp1716
g7
S'Tom'
p1717
sg9
S'Tseng'
p1718
sg11
I2
sg12
g294
sg14
S'thomasts@andrew.cmu.edu'
p1719
sg16
S'4257776626'
p1720
sg18
(lp1721
sg63
I238
sg64
(lp1722
I9
aI10
aI3
aI18
aI7
aI8
aI6
aI4
aI5
aI2
asbsI239
g1
(g2
g3
Ntp1723
Rp1724
(dp1725
g7
S'Briana'
p1726
sg9
S'Williams'
p1727
sg11
I2
sg12
g13
sg14
S'bjwillia@andrew.cmu.edu'
p1728
sg16
S'4437913827'
p1729
sg18
(lp1730
sg63
I239
sg64
(lp1731
I21
aI12
aI11
aI18
aI13
aI8
aI5
asbsI240
g438
sI241
g1
(g2
g3
Ntp1732
Rp1733
(dp1734
g7
S'Beth'
p1735
sg9
S'Luan'
p1736
sg11
I3
sg12
g13
sg14
S'donghuil@andrew.cmu.edu'
p1737
sg16
S'4124820527'
p1738
sg18
(lp1739
sg63
I241
sg64
(lp1740
I10
aI8
aI7
aI6
aI1
aI3
aI9
aI14
aI5
aI4
aI11
aI2
aI20
asbsI242
g662
sI243
g995
sI244
g1
(g2
g3
Ntp1741
Rp1742
(dp1743
g7
S'Sabrina'
p1744
sg9
S'Estudillo'
p1745
sg11
I0
sg12
g13
sg14
S'sestudil@andrew.cmu.edu'
p1746
sg16
S'7735925502'
p1747
sg18
(lp1748
sg63
I244
sg64
(lp1749
sbsI246
g808
sI247
g1
(g2
g3
Ntp1750
Rp1751
(dp1752
g7
S'Ashwin'
p1753
sg9
S'Sekar'
p1754
sg11
I1
sg12
g294
sg14
S'asekar@andrew.cmu.edu'
p1755
sg16
S'3016930977'
p1756
sg18
(lp1757
sg63
I247
sg64
(lp1758
I3
aI6
aI5
aI2
aI18
aI7
aI17
asbsI248
g1
(g2
g3
Ntp1759
Rp1760
(dp1761
g7
S'Richard'
p1762
sg9
S'Huang'
p1763
sg11
I2
sg12
g294
sg14
S'rahuang@andrew.cmu.edu'
p1764
sg16
S'2012816121'
p1765
sg18
(lp1766
sg63
I248
sg64
(lp1767
I1
aI2
aI7
aI10
aI12
asbsI250
g349
sI251
g1
(g2
g3
Ntp1768
Rp1769
(dp1770
g7
S'Sruti'
p1771
sg9
S'Modekurty'
p1772
sg11
I2
sg12
g13
sg14
S'ssmodekur@andrew.cmu.edu'
p1773
sg16
S'9162206131'
p1774
sg18
(lp1775
sg63
I251
sg64
(lp1776
I11
aI1
aI2
aI14
aI21
aI18
aI8
asbsI254
g799
sI255
g1
(g2
g3
Ntp1777
Rp1778
(dp1779
g7
S'Fei'
p1780
sg9
S'Lu'
p1781
sg11
I1
sg12
g13
sg14
S'feilu@andrew.cmu.edu'
p1782
sg16
S'4129611075'
p1783
sg18
(lp1784
sg63
I255
sg64
(lp1785
I4
aI13
aI12
aI7
aI6
aI18
aI21
aI10
aI8
aI1
aI2
aI16
asbsI257
g1
(g2
g3
Ntp1786
Rp1787
(dp1788
g7
S'Radhika'
p1789
sg9
S'Dalal'
p1790
sg11
I2
sg12
g13
sg14
S'rdalal@andrew.cmu.edu'
p1791
sg16
S'609-712-1122'
p1792
sg18
(lp1793
sg63
I257
sg64
(lp1794
I8
aI2
aI1
aI5
aI10
aI11
asbsI258
g1
(g2
g3
Ntp1795
Rp1796
(dp1797
g7
S'Annie'
p1798
sg9
S'Chen'
p1799
sg11
I1
sg12
g13
sg14
S'annieche@andrew.cmu.edu'
p1800
sg16
S'9099129987'
p1801
sg18
(lp1802
sg63
I258
sg64
(lp1803
I12
aI7
aI5
aI4
aI20
aI21
aI13
aI8
aI1
aI11
asbsI259
g1080
sI260
g968
sI261
g787
sI262
g1352
sI263
g1
(g2
g3
Ntp1804
Rp1805
(dp1806
g7
S'LeShaun'
p1807
sg9
S'Jones'
p1808
sg11
I2
sg12
g13
sg14
S'lkjones@andrew.cmu.edu'
p1809
sg16
S'3475782969'
p1810
sg18
(lp1811
sg63
I263
sg64
(lp1812
I3
aI8
aI1
aI20
aI6
aI10
aI11
aI4
aI2
aI5
aI21
aI9
aI7
aI13
asbsI264
g497
sI268
g745
sI269
g1
(g2
g3
Ntp1813
Rp1814
(dp1815
g7
S'Josh '
p1816
sg9
S'Kim'
p1817
sg11
I0
sg12
g294
sg14
S'gyeongyk@andrrew.cmu.edu'
p1818
sg16
S'4124824215'
p1819
sg18
(lp1820
sg63
I269
sg64
(lp1821
sbsI270
g1373
sI271
g1
(g2
g3
Ntp1822
Rp1823
(dp1824
g7
S'alina'
p1825
sg9
S'rath'
p1826
sg11
I1
sg12
g13
sg14
S'arath@andrew.cmu.edu'
p1827
sg16
S'4123781565'
p1828
sg18
(lp1829
sg63
I271
sg64
(lp1830
I10
aI8
aI6
aI5
aI21
aI13
aI1
aI2
aI14
aI11
aI3
aI4
asbsI273
g1
(g2
g3
Ntp1831
Rp1832
(dp1833
g7
S'Maunika'
p1834
sg9
S'Atmakuri'
p1835
sg11
I1
sg12
g13
sg14
S'"matmakur@andrew'
p1836
sg16
g443
sg18
(lp1837
sg63
I273
sg64
(lp1838
I6
aI10
aI8
aI2
aI4
aI1
aI21
aI19
asbsI274
g300
sI275
g1
(g2
g3
Ntp1839
Rp1840
(dp1841
g7
S'Sophia'
p1842
sg9
S'Deng'
p1843
sg11
I2
sg12
g13
sg14
S'sophaid@andrew.cmu.edu'
p1844
sg16
S'9737387220'
p1845
sg18
(lp1846
sg63
I275
sg64
(lp1847
I5
aI14
aI8
aI6
aI10
aI18
aI11
aI1
aI12
aI2
aI13
aI16
asbsI276
g506
sI278
g1016
sI279
g1
(g2
g3
Ntp1848
Rp1849
(dp1850
g7
S'Akira'
p1851
sg9
S'Kyle'
p1852
sg11
I1
sg12
g294
sg14
S'akyle@cmu.edu'
p1853
sg16
S'7203315037'
p1854
sg18
(lp1855
sg63
I279
sg64
(lp1856
I17
asbsI280
g1089
sI281
g959
sI282
g637
sI283
g1203
sI284
g1334
sI285
g1210
sI286
g754
sI294
g1
(g2
g3
Ntp1857
Rp1858
(dp1859
g7
S'Karishma'
p1860
sg9
S'Manglani'
p1861
sg11
I2
sg12
g13
sg14
S'kmanglan@andrew.cmu.edu'
p1862
sg16
S'7818999015'
p1863
sg18
(lp1864
sg63
I294
sg64
(lp1865
I13
aI1
aI16
aI11
aI12
aI4
aI2
aI8
aI6
aI7
asbsI300
g691
sI301
g30
sI302
g1343
sI304
g526
sI305
g358
sI306
g1
(g2
g3
Ntp1866
Rp1867
(dp1868
g7
S'Ranjini'
p1869
sg9
S'Narayan'
p1870
sg11
I2
sg12
g13
sg14
S'rnarayan@andrew.cmu.edu'
p1871
sg16
S'2399894941'
p1872
sg18
(lp1873
sg63
I306
sg64
(lp1874
I20
aI21
asbsI307
g1364
sI308
g986
sI309
g1325
sI310
g769
sI311
g1382
sI312
g950
sI313
g447
sI314
g1
(g2
g3
Ntp1875
Rp1876
(dp1877
g7
S'Noah'
p1878
sg9
S'FATSI'
p1879
sg11
I1
sg12
g294
sg14
S'naf@andrew.cmu.edu'
p1880
sg16
S'(804)971-2491'
p1881
sg18
(lp1882
sg63
I314
sg64
(lp1883
I2
aI4
aI5
aI6
aI21
aI18
aI12
aI11
aI10
asbsI315
g1068
sI316
g1
(g2
g3
Ntp1884
Rp1885
(dp1886
g7
S'Inez'
p1887
sg9
S'Khan'
p1888
sg11
I2
sg12
g13
sg14
S'inezk@andrew.cmu.edu'
p1889
sg16
S'6173352313'
p1890
sg18
(lp1891
sg63
I316
sg64
(lp1892
I17
aI16
aI15
aI12
aI13
aI14
aI4
aI3
aI9
aI8
aI11
asbsI317
g1167
sI318
g150
sI319
g1
(g2
g3
Ntp1893
Rp1894
(dp1895
g7
S'Allison'
p1896
sg9
S'Ngo'
p1897
sg11
I1
sg12
g13
sg14
S'ahngo@andrew.cmu.edu'
p1898
sg16
S'4088342074'
p1899
sg18
(lp1900
sg63
I319
sg64
(lp1901
I1
aI2
aI10
aI8
aI7
aI5
asbs.