(dp0
I1
ccopy_reg
_reconstructor
p1
(caudition_program
Piece
p2
c__builtin__
object
p3
Ntp4
Rp5
(dp6
S'capacity'
p7
I28
sS'name'
p8
S'Lisa and Feyi'
p9
sS'dancers'
p10
(lp11
g1
(caudition_program
Dancer
p12
g3
Ntp13
Rp14
(dp15
S'first_name'
p16
S'Lisa'
p17
sS'last_name'
p18
S'Natale'
p19
sS'num_pieces'
p20
I0
sS'gender'
p21
S'F'
p22
sS'email'
p23
S'lnatale@andrew.cmu.edu'
p24
sS'phone'
p25
S'4074612769'
p26
sS'piece_ids'
p27
(lp28
g5
ag1
(g2
g3
Ntp29
Rp30
(dp31
g7
I17
sg8
S'Michelle and Elisa'
p32
sg10
(lp33
g1
(g12
g3
Ntp34
Rp35
(dp36
g16
S'Elisa'
p37
sg18
S'Pabon'
p38
sg20
I0
sg21
g22
sg23
S'epabon@andrew.cmu.edu'
p39
sg25
S'7812675400'
p40
sg27
(lp41
g5
ag30
ag1
(g2
g3
Ntp42
Rp43
(dp44
g7
I15
sg8
S'Yuyan Sun'
p45
sg10
(lp46
g1
(g12
g3
Ntp47
Rp48
(dp49
g16
S'Yuyan'
p50
sg18
S'Sun'
p51
sg20
I1
sg21
g22
sg23
S'yuyans@andrew.cmu.edu'
p52
sg25
S'4122514792'
p53
sg27
(lp54
g43
asS'id'
p55
I81
sS'piece_rankings'
p56
(lp57
I12
asbag35
ag1
(g12
g3
Ntp58
Rp59
(dp60
g16
S'Michelle'
p61
sg18
S'Cho'
p62
sg20
I0
sg21
g22
sg23
S'no email'
p63
sg25
S'no phone'
p64
sg27
(lp65
g5
ag30
ag43
asg55
I74
sg56
(lp66
I5
aI3
aI8
asbag1
(g12
g3
Ntp67
Rp68
(dp69
g16
S'Karin'
p70
sg18
S'Tsai'
p71
sg20
I0
sg21
g22
sg23
S'karintsa@andrew.cmu.edu'
p72
sg25
S'717-817-1027'
p73
sg27
(lp74
g1
(g2
g3
Ntp75
Rp76
(dp77
g7
I12
sg8
S'Katie Tang'
p78
sg10
(lp79
g1
(g12
g3
Ntp80
Rp81
(dp82
g16
S'Katie'
p83
sg18
S'Tang'
p84
sg20
I3
sg21
g22
sg23
S'ktang1@andrew.cmu.edu'
p85
sg25
S'9733496448'
p86
sg27
(lp87
g76
asg55
I89
sg56
(lp88
I7
asbag68
ag1
(g12
g3
Ntp89
Rp90
(dp91
g16
S'Christin'
p92
sg18
S'Bongiorni'
p93
sg20
I0
sg21
g22
sg23
S'cbongior@andrew.cmu.edu'
p94
sg25
S'724-809-5704'
p95
sg27
(lp96
g76
ag1
(g2
g3
Ntp97
Rp98
(dp99
g7
I12
sg8
S'Gail Wilson'
p100
sg10
(lp101
g1
(g12
g3
Ntp102
Rp103
(dp104
g16
S'Gail'
p105
sg18
S'Wilson'
p106
sg20
I0
sg21
g22
sg23
S'gdw@andrew.cmu.edu'
p107
sg25
S'9253951097'
p108
sg27
(lp109
g5
ag98
ag1
(g2
g3
Ntp110
Rp111
(dp112
g7
I14
sg8
S'Feyi and Karin'
p113
sg10
(lp114
g1
(g12
g3
Ntp115
Rp116
(dp117
g16
S'Feyi'
p118
sg18
S'Quadri'
p119
sg20
I0
sg21
g22
sg23
S'fmq@andrew.cmu.edu'
p120
sg25
S'301-928-7195'
p121
sg27
(lp122
g5
ag111
ag1
(g2
g3
Ntp123
Rp124
(dp125
g7
I16
sg8
S'Alexis and Leann'
p126
sg10
(lp127
g1
(g12
g3
Ntp128
Rp129
(dp130
g16
S'Alexis'
p131
sg18
S'DeLaRosa'
p132
sg20
I0
sg21
g22
sg23
S'adelaros@andrew.cmu.edu'
p133
sg25
S'4+'
p134
sg27
(lp135
g1
(g2
g3
Ntp136
Rp137
(dp138
g7
I14
sg8
S'Alexis DeLaRosa'
p139
sg10
(lp140
g129
ag1
(g12
g3
Ntp141
Rp142
(dp143
g16
S'Rochelle'
p144
sg18
S'Samuel'
p145
sg20
I0
sg21
g22
sg23
S'rsamuel@andrew.cmu.edu'
p146
sg25
S'240-672-7683'
p147
sg27
(lp148
g137
ag111
ag5
asg55
I224
sg56
(lp149
I9
aI10
asbag1
(g12
g3
Ntp150
Rp151
(dp152
g16
S'Winona'
p153
sg18
S'Li'
p154
sg20
I0
sg21
g22
sg23
S'wnl@andrew.cmu.edu'
p155
sg25
S'4123527893'
p156
sg27
(lp157
g137
ag1
(g2
g3
Ntp158
Rp159
(dp160
g7
I12
sg8
S'Jackie Lee'
p161
sg10
(lp162
g1
(g12
g3
Ntp163
Rp164
(dp165
g16
S'Jacqueline'
p166
sg18
S'Lee'
p167
sg20
I0
sg21
g22
sg23
S'jacquell@andrew.cmu.edu'
p168
sg25
S'6263885735'
p169
sg27
(lp170
g159
ag1
(g2
g3
Ntp171
Rp172
(dp173
g7
I8
sg8
S'Amy Lee'
p174
sg10
(lp175
g151
ag1
(g12
g3
Ntp176
Rp177
(dp178
g16
S'Kristina'
p179
sg18
S'Banh'
p180
sg20
I0
sg21
g22
sg23
S'kbanh@andrew.cmu.edu'
p181
sg25
S'2149144987'
p182
sg27
(lp183
g124
ag172
ag1
(g2
g3
Ntp184
Rp185
(dp186
g7
I15
sg8
S'Julia Amy and Ashley'
p187
sg10
(lp188
g1
(g12
g3
Ntp189
Rp190
(dp191
g16
S'Ashley'
p192
sg18
S'Lee'
p193
sg20
I0
sg21
g22
sg23
S'ashleyle@andrew.cmu.edu'
p194
sg25
S'2407538521'
p195
sg27
(lp196
g1
(g2
g3
Ntp197
Rp198
(dp199
g7
I12
sg8
S'Amy Chen'
p200
sg10
(lp201
g1
(g12
g3
Ntp202
Rp203
(dp204
g16
S'Amy'
p205
sg18
S'Chen'
p206
sg20
I1
sg21
g22
sg23
S'ayc1@andrew.cmu.edu'
p207
sg25
S'650-833-9629'
p208
sg27
(lp209
g198
ag185
ag76
asg55
I82
sg56
(lp210
sbag1
(g12
g3
Ntp211
Rp212
(dp213
g16
S'Julia'
p214
sg18
S'Luo'
p215
sg20
I0
sg21
g22
sg23
S'julialuo@andrew.cmu.edu'
p216
sg25
S'2158598203'
p217
sg27
(lp218
g198
ag159
ag185
ag1
(g2
g3
Ntp219
Rp220
(dp221
g7
I12
sg8
S'Regine Choi'
p222
sg10
(lp223
g1
(g12
g3
Ntp224
Rp225
(dp226
g16
S'Regine'
p227
sg18
S'Choi'
p228
sg20
I1
sg21
g22
sg23
S'ric@andrew.cmu.edu'
p229
sg25
S'(302) 897-0894'
p230
sg27
(lp231
g159
ag220
ag185
asg55
I83
sg56
(lp232
I21
asbag190
ag1
(g12
g3
Ntp233
Rp234
(dp235
g16
S'Jeanette'
p236
sg18
S'Pong'
p237
sg20
I0
sg21
g22
sg23
S'kaiyingp@andrew.cmu.edu'
p238
sg25
S'6509449583'
p239
sg27
(lp240
g185
ag220
ag1
(g2
g3
Ntp241
Rp242
(dp243
g7
I12
sg8
S'Himali and Emily'
p244
sg10
(lp245
g1
(g12
g3
Ntp246
Rp247
(dp248
g16
S'Emily'
p249
sg18
S'Giedzinski'
p250
sg20
I0
sg21
g22
sg23
S'egiedzin@andrew.cmu.edu'
p251
sg25
S'3'
p252
sg27
(lp253
g1
(g2
g3
Ntp254
Rp255
(dp256
g7
I9
sg8
S'Emily and Jade'
p257
sg10
(lp258
g1
(g12
g3
Ntp259
Rp260
(dp261
g16
S'Jade'
p262
sg18
S'Schiffer'
p263
sg20
I0
sg21
g22
sg23
S'jschiffe@andrew.cmu.edu'
p264
sg25
S'9142173322'
p265
sg27
(lp266
g255
ag220
asg55
I92
sg56
(lp267
I16
aI5
asbag247
ag1
(g12
g3
Ntp268
Rp269
(dp270
g16
S'Kelsey'
p271
sg18
S'Scott'
p272
sg20
I0
sg21
g22
sg23
S'kescott@andrew.cmu.edu'
p273
sg25
S'9086192579'
p274
sg27
(lp275
g255
ag242
ag185
asg55
I164
sg56
(lp276
I11
aI4
aI15
asbag1
(g12
g3
Ntp277
Rp278
(dp279
g16
S'Amy '
p280
sg18
S'Lee'
p281
sg20
I0
sg21
g22
sg23
S'amylee@andrew.cmu.edu'
p282
sg25
S'4+'
p283
sg27
(lp284
g1
(g2
g3
Ntp285
Rp286
(dp287
g7
I16
sg8
S'Terrence Mims'
p288
sg10
(lp289
g1
(g12
g3
Ntp290
Rp291
(dp292
g16
S'Terrence'
p293
sg18
S'Mims'
p294
sg20
I0
sg21
S'M'
p295
sg23
S'tmimstv@icloud.com'
p296
sg25
S'4124990271'
p297
sg27
(lp298
g5
ag286
ag111
asg55
I85
sg56
(lp299
I18
aI12
aI20
aI15
aI7
asbag1
(g12
g3
Ntp300
Rp301
(dp302
g16
S'Chris'
p303
sg18
S'Shon'
p304
sg20
I1
sg21
g295
sg23
S'sieon97@yahoo.com'
p305
sg25
S'2155183683'
p306
sg27
(lp307
g286
ag198
asg55
I274
sg56
(lp308
I2
asbag1
(g12
g3
Ntp309
Rp310
(dp311
g16
S'Sean'
p312
sg18
S'Xiao'
p313
sg20
I0
sg21
g295
sg23
S'ssx@andrew.cmu.edu'
p314
sg25
S'4129152944'
p315
sg27
(lp316
g286
ag1
(g2
g3
Ntp317
Rp318
(dp319
g7
I8
sg8
S'Sang Xu'
p320
sg10
(lp321
g1
(g12
g3
Ntp322
Rp323
(dp324
g16
S'Sang'
p325
sg18
S'Xu'
p326
sg20
I1
sg21
g295
sg23
S'sangx@andrew.cmu.edu'
p327
sg25
S'4129613477'
p328
sg27
(lp329
g111
ag318
asg55
I88
sg56
(lp330
I3
asbag1
(g12
g3
Ntp331
Rp332
(dp333
g16
S'Aleah'
p334
sg18
S'Haygood'
p335
sg20
I0
sg21
g22
sg23
S'ahaygood@andrew.cmu.edu'
p336
sg25
S'4136570296'
p337
sg27
(lp338
g111
ag318
ag5
asg55
I124
sg56
(lp339
I7
aI2
aI5
asbag1
(g12
g3
Ntp340
Rp341
(dp342
g16
S'Albert'
p343
sg18
S'Du'
p344
sg20
I0
sg21
g295
sg23
S'lbrtdu@yahoo.com'
p345
sg25
S'412-983-0136'
p346
sg27
(lp347
g286
ag318
ag30
asg55
I183
sg56
(lp348
I6
aI7
aI4
aI10
aI5
aI1
aI8
aI21
asbag310
ag1
(g12
g3
Ntp349
Rp350
(dp351
g16
S'Benjamin'
p352
sg18
S'Chu'
p353
sg20
I0
sg21
g295
sg23
S'bcchu@andrew.cmu.edu'
p354
sg25
S'4084933045'
p355
sg27
(lp356
g318
ag76
asg55
I250
sg56
(lp357
I5
aI4
aI10
aI11
aI22
asbag1
(g12
g3
Ntp358
Rp359
(dp360
g16
S'John'
p361
sg18
S'Han'
p362
sg20
I0
sg21
g295
sg23
S'manjunh@andrew.cmu.edu'
p363
sg25
S'4126946199'
p364
sg27
(lp365
g286
ag318
ag43
asg55
I305
sg56
(lp366
I8
aI10
asbag1
(g12
g3
Ntp367
Rp368
(dp369
g16
S'Wellington'
p370
sg18
S'Lee'
p371
sg20
I0
sg21
g295
sg23
S'wklee@andrew.cmu.edu'
p372
sg25
S'5209813052'
p373
sg27
(lp374
g318
asg55
I194
sg56
(lp375
sbag1
(g12
g3
Ntp376
Rp377
(dp378
g16
S'Kaalen'
p379
sg18
S'Kirrene'
p380
sg20
I0
sg21
g295
sg23
g63
sg25
g64
sg27
(lp381
g1
(g2
g3
Ntp382
Rp383
(dp384
g7
I14
sg8
S'Jilisa McCullough'
p385
sg10
(lp386
g1
(g12
g3
Ntp387
Rp388
(dp389
g16
S'JIlisa'
p390
sg18
S'McCullough'
p391
sg20
I1
sg21
g22
sg23
S'jilisam@andrew.cmu.edu'
p392
sg25
S'2677016259'
p393
sg27
(lp394
g383
ag137
ag185
asg55
I78
sg56
(lp395
I8
asbag116
ag1
(g12
g3
Ntp396
Rp397
(dp398
g16
S'Oliver'
p399
sg18
S'Liburd'
p400
sg20
I1
sg21
g295
sg23
g63
sg25
g64
sg27
(lp401
g383
ag1
(g2
g3
Ntp402
Rp403
(dp404
g7
I10
sg8
S'Yiyi Zhao'
p405
sg10
(lp406
g1
(g12
g3
Ntp407
Rp408
(dp409
g16
S'Yiyi'
p410
sg18
S'Zhao'
p411
sg20
I1
sg21
g22
sg23
S'yiyizhao@andrew.cmu.edu'
p412
sg25
S'4125927874'
p413
sg27
(lp414
g403
ag1
(g2
g3
Ntp415
Rp416
(dp417
g7
I8
sg8
S'Ivana Stevens'
p418
sg10
(lp419
g1
(g12
g3
Ntp420
Rp421
(dp422
g16
S'Ivana'
p423
sg18
S'Stevens'
p424
sg20
I1
sg21
g22
sg23
S'istevens@andrew.cmu.edu'
p425
sg25
S'7573199541'
p426
sg27
(lp427
g416
asg55
I97
sg56
(lp428
I8
aI14
aI10
aI1
aI5
aI6
aI7
aI20
aI11
aI3
aI2
aI21
asbag1
(g12
g3
Ntp429
Rp430
(dp431
g16
S'Himalli'
p432
sg18
S'Ranade'
p433
sg20
I0
sg21
g22
sg23
S'hranade@andrew.cmu.edu'
p434
sg25
S'4123787548'
p435
sg27
(lp436
g242
ag403
ag416
ag255
asg55
I91
sg56
(lp437
I20
aI21
aI12
aI18
aI14
aI15
aI10
aI11
aI8
aI5
aI4
asbag408
ag1
(g12
g3
Ntp438
Rp439
(dp440
g16
S'DeeDee'
p441
sg18
S'Han'
p442
sg20
I0
sg21
g22
sg23
S'dthan@andrew.cmu.edu'
p443
sg25
S'0'
p444
sg27
(lp445
g416
ag403
asg55
I240
sg56
(lp446
I5
asbag247
ag1
(g12
g3
Ntp447
Rp448
(dp449
g16
S'Gabe'
p450
sg18
S'Bamforth'
p451
sg20
I0
sg21
g295
sg23
S'gbb@andrew.cmu.edu'
p452
sg25
S'6172902011'
p453
sg27
(lp454
g416
asg55
I313
sg56
(lp455
I11
aI12
asbasS'dancer_rankings'
p456
(lp457
I97
aI91
aI95
aI96
aI313
aI240
asS'gender_constraints'
p458
(dp459
sg55
I19
sbag220
asg55
I96
sg56
(lp460
I16
aI14
aI5
aI11
aI18
aI7
aI6
aI2
aI1
aI8
aI4
asbag430
ag1
(g12
g3
Ntp461
Rp462
(dp463
g16
S'Sam'
p464
sg18
S'Gao'
p465
sg20
I0
sg21
g22
sg23
S'samanthg@andrew.cmu.edu'
p466
sg25
S'7188667513'
p467
sg27
(lp468
g286
ag403
asg55
I162
sg56
(lp469
I13
aI15
aI18
aI21
asbag1
(g12
g3
Ntp470
Rp471
(dp472
g16
S'Juan Miguel'
p473
sg18
S'Ogarrio'
p474
sg20
I1
sg21
g295
sg23
S'jogarrio@andrew.cmu.edu'
p475
sg25
S'412-956-7655'
p476
sg27
(lp477
g159
ag403
asg55
I168
sg56
(lp478
I2
aI11
aI13
aI21
asbag1
(g12
g3
Ntp479
Rp480
(dp481
g16
S'Shi'
p482
sg18
S'Xue'
p483
sg20
I2
sg21
g22
sg23
S'shix@andrew.cmu.edu'
p484
sg25
S'4127081922'
p485
sg27
(lp486
g403
asg55
I205
sg56
(lp487
I4
aI15
aI11
aI13
asbag1
(g12
g3
Ntp488
Rp489
(dp490
g16
S'Adeline'
p491
sg18
S'Shin'
p492
sg20
I0
sg21
g22
sg23
S'adelines@andrew.cmu.edu'
p493
sg25
S'8584059664'
p494
sg27
(lp495
g403
asg55
I186
sg56
(lp496
I19
aI13
aI18
aI21
aI12
aI15
aI11
asbag397
ag439
ag1
(g12
g3
Ntp497
Rp498
(dp499
g16
S'Velisa'
p500
sg18
S'Li'
p501
sg20
I2
sg21
g22
sg23
S'vcl@andrew.cmu.edu'
p502
sg25
S'610-653-4032'
p503
sg27
(lp504
g403
asg55
I264
sg56
(lp505
I21
aI6
asbag1
(g12
g3
Ntp506
Rp507
(dp508
g16
S'Audrey'
p509
sg18
S'Zheng'
p510
sg20
I2
sg21
g22
sg23
S'audreyz@andrew.cmu.edu'
p511
sg25
g444
sg27
(lp512
g403
asg55
I276
sg56
(lp513
I3
aI9
aI12
aI22
aI5
aI13
asbasg456
(lp514
I96
aI91
aI162
aI168
aI205
aI186
aI171
aI187
aI240
aI264
aI276
aI279
aI313
aI316
asg458
(dp515
g295
g1
(caudition_program
GenderConstraint
p516
g3
Ntp517
Rp518
(dp519
S'max'
p520
I2
sS'min'
p521
I2
sbsg22
g1
(g516
g3
Ntp522
Rp523
(dp524
g520
I8
sg521
I8
sbssg55
I17
sbasg55
I171
sg56
(lp525
I13
asbag1
(g12
g3
Ntp526
Rp527
(dp528
g16
S'Shae'
p529
sg18
S'Hart'
p530
sg20
I0
sg21
g22
sg23
S'sthart@andrew.cmu.edu'
p531
sg25
S'4802944280'
p532
sg27
(lp533
g5
ag383
asg55
I304
sg56
(lp534
I13
aI18
asbag377
ag1
(g12
g3
Ntp535
Rp536
(dp537
g16
S'Priscilla'
p538
sg18
S'Medor'
p539
sg20
I0
sg21
g22
sg23
S'pmedor@andrew.cmu.edu'
p540
sg25
S'8452825210'
p541
sg27
(lp542
g383
asg55
I191
sg56
(lp543
I9
aI19
aI7
asbag1
(g12
g3
Ntp544
Rp545
(dp546
g16
S'kathryn'
p547
sg18
S'bregna'
p548
sg20
I1
sg21
g22
sg23
S'kbregna@andrew.cmu.edu'
p549
sg25
S'2012304671'
p550
sg27
(lp551
g383
asg55
I210
sg56
(lp552
sbag1
(g12
g3
Ntp553
Rp554
(dp555
g16
S'Will'
p556
sg18
S'Crouch'
p557
sg20
I0
sg21
g295
sg23
S'wcrouch@andrew.cmu'
p558
sg25
S'4782357533'
p559
sg27
(lp560
g124
ag383
ag30
asg55
I130
sg56
(lp561
sbag1
(g12
g3
Ntp562
Rp563
(dp564
g16
S'Nakul'
p565
sg18
S'Garg'
p566
sg20
I0
sg21
g295
sg23
S'ngarg1@andrew.cmu.edu'
p567
sg25
S'9145239412'
p568
sg27
(lp569
g76
ag383
asg55
I173
sg56
(lp570
sbag1
(g12
g3
Ntp571
Rp572
(dp573
g16
S'Ashwin'
p574
sg18
S'Panda'
p575
sg20
I0
sg21
g295
sg23
S'apanda1@andrew.cmu.edu'
p576
sg25
S'5086158846'
p577
sg27
(lp578
g383
asg55
I140
sg56
(lp579
I20
aI18
aI17
aI19
aI11
aI12
aI13
asbasg456
(lp580
I78
aI76
aI80
aI191
aI210
aI171
aI173
aI108
aI125
aI304
aI166
aI264
aI130
aI83
aI140
aI146
asg458
(dp581
g295
g1
(g516
g3
Ntp582
Rp583
(dp584
g520
I9
sg521
I9
sbsg22
g1
(g516
g3
Ntp585
Rp586
(dp587
g520
I5
sg521
I5
sbssg55
I21
sbag111
ag318
asg55
I166
sg56
(lp588
I20
aI17
aI15
aI19
aI10
aI13
aI1
aI6
asbasg456
(lp589
I88
aI124
aI183
aI194
aI219
aI166
aI250
aI305
aI200
aI173
aI95
aI122
aI233
asg458
(dp590
sg55
I9
sbasg55
I219
sg56
(lp591
I2
aI6
aI4
aI8
aI7
asbag1
(g12
g3
Ntp592
Rp593
(dp594
g16
S'Daniel'
p595
sg18
S'See'
p596
sg20
I0
sg21
g295
sg23
S'ysee@andrew.cmu.edu'
p597
sg25
S'2155594157'
p598
sg27
(lp599
g286
asg55
I163
sg56
(lp600
I2
aI1
aI8
asbag359
ag341
ag1
(g12
g3
Ntp601
Rp602
(dp603
g16
S'Yiyang (Maggie)'
p604
sg18
S'Lyu'
p605
sg20
I0
sg21
g22
sg23
S'"yiyangl@andrew'
p606
sg25
S'CIT'
p607
sg27
(lp608
g286
ag43
ag111
asg55
I235
sg56
(lp609
I6
aI1
aI9
aI10
aI4
aI5
aI20
aI21
asbag1
(g12
g3
Ntp610
Rp611
(dp612
g16
S'Jacqueline'
p613
sg18
S'Jiang'
p614
sg20
I0
sg21
g22
sg23
S'xuanj@andrew.cmu.edu'
p615
sg25
S'4127595966'
p616
sg27
(lp617
g286
ag43
ag111
asg55
I233
sg56
(lp618
I6
aI1
aI9
aI10
aI5
aI20
aI21
asbag1
(g12
g3
Ntp619
Rp620
(dp621
g16
S'Damon'
p622
sg18
S'Wong'
p623
sg20
I0
sg21
g295
sg23
S'dtw@andrew.cmu.edu'
p624
sg25
S'4087727199'
p625
sg27
(lp626
g286
asg55
I211
sg56
(lp627
I9
asbag1
(g12
g3
Ntp628
Rp629
(dp630
g16
S'Newton'
p631
sg18
S'Xie'
p632
sg20
I1
sg21
g295
sg23
S'ncx@andrew.cmu.edu'
p633
sg25
S'9089022495'
p634
sg27
(lp635
g286
asg55
I126
sg56
(lp636
I7
aI8
asbag278
ag462
ag1
(g12
g3
Ntp637
Rp638
(dp639
g16
S'Ning-Jiun'
p640
sg18
S'Jan'
p641
sg20
I0
sg21
g22
sg23
S'ningjiun.jan@gmail.com'
p642
sg25
S'7326620618'
p643
sg27
(lp644
g286
asg55
I282
sg56
(lp645
I5
aI21
aI18
asbag1
(g12
g3
Ntp646
Rp647
(dp648
g16
S'David'
p649
sg18
S'Buzzell'
p650
sg20
I1
sg21
g295
sg23
g63
sg25
g64
sg27
(lp651
g286
ag159
asg55
I76
sg56
(lp652
I5
aI21
aI20
asbag1
(g12
g3
Ntp653
Rp654
(dp655
g16
S'Weikun'
p656
sg18
S'Liang'
p657
sg20
I0
sg21
g22
sg23
S'weikunl@andrew.cmu.edu'
p658
sg25
S'4126389865'
p659
sg27
(lp660
g198
ag286
asg55
I230
sg56
(lp661
I11
aI9
aI21
asbag1
(g12
g3
Ntp662
Rp663
(dp664
g16
S'Cynthia'
p665
sg18
S'Lao'
p666
sg20
I0
sg21
g22
sg23
S'clao@andrew.cmu.edu'
p667
sg25
S'9173286589'
p668
sg27
(lp669
g286
ag1
(g2
g3
Ntp670
Rp671
(dp672
g7
I12
sg8
S'Taisha Vargas'
p673
sg10
(lp674
g1
(g12
g3
Ntp675
Rp676
(dp677
g16
S'Taisha'
p678
sg18
S'Vargas'
p679
sg20
I1
sg21
g22
sg23
g63
sg25
g64
sg27
(lp680
g671
ag76
asg55
I86
sg56
(lp681
I10
aI3
asbag1
(g12
g3
Ntp682
Rp683
(dp684
g16
S'Marcus'
p685
sg18
S'Todd'
p686
sg20
I2
sg21
g295
sg23
S'matodd@andrew.cmu.edu'
p687
sg25
S'8458208800'
p688
sg27
(lp689
g671
asg55
I200
sg56
(lp690
I9
aI7
aI5
asbag1
(g12
g3
Ntp691
Rp692
(dp693
g16
S'Grace'
p694
sg18
S'Kao'
p695
sg20
I1
sg21
g22
sg23
S'gek@andrew.cmu.edu'
p696
sg25
S'5176145644'
p697
sg27
(lp698
g671
asg55
I300
sg56
(lp699
I6
aI10
asbag1
(g12
g3
Ntp700
Rp701
(dp702
g16
S'Carrie '
p703
sg18
S'Qiu'
p704
sg20
I0
sg21
g22
sg23
S'carrieq@andrew.cmu.edu'
p705
sg25
S'4125872968'
p706
sg27
(lp707
g98
ag671
asg55
I190
sg56
(lp708
I3
aI2
aI7
asbag1
(g12
g3
Ntp709
Rp710
(dp711
g16
S'Isabella'
p712
sg18
S'Starvaggi'
p713
sg20
I0
sg21
g22
sg23
S'istarvag@andrew.cmu.edu'
p714
sg25
S'1'
p715
sg27
(lp716
g671
ag242
asg55
I156
sg56
(lp717
I18
aI11
asbag1
(g12
g3
Ntp718
Rp719
(dp720
g16
S'Christine'
p721
sg18
S'Zhu'
p722
sg20
I1
sg21
g22
sg23
S'christiz@andrew.cmu.edu'
p723
sg25
S'9177567876'
p724
sg27
(lp725
g671
asg55
I176
sg56
(lp726
I3
aI10
aI9
aI6
asbag1
(g12
g3
Ntp727
Rp728
(dp729
g16
S'Dyanna'
p730
sg18
S'Person'
p731
sg20
I2
sg21
g22
sg23
S'dmp55@pitt.edu'
p732
sg25
S'3018074273'
p733
sg27
(lp734
g671
asg55
I199
sg56
(lp735
I1
aI8
aI14
aI10
aI12
aI18
aI21
aI11
aI6
asbag1
(g12
g3
Ntp736
Rp737
(dp738
g16
S'Roosha'
p739
sg18
S'Mandal'
p740
sg20
I0
sg21
g22
sg23
S'rmandal@andrew.cmu.edu'
p741
sg25
S'4127061406'
p742
sg27
(lp743
g220
ag242
ag671
asg55
I226
sg56
(lp744
I17
aI12
aI10
aI11
aI14
asbag247
ag663
ag1
(g12
g3
Ntp745
Rp746
(dp747
g16
S'Lina'
p748
sg18
S'Sheremet'
p749
sg20
I2
sg21
g22
sg23
S'ashereme@andrew.cmu.edu'
p750
sg25
S'6178331608'
p751
sg27
(lp752
g671
asg55
I268
sg56
(lp753
I8
aI1
aI2
aI5
aI7
aI10
aI13
aI4
aI6
aI3
aI11
aI9
aI14
aI18
asbag1
(g12
g3
Ntp754
Rp755
(dp756
g16
S'Christina'
p757
sg18
S'Ou'
p758
sg20
I1
sg21
g22
sg23
S'cou@andrew.cmu.edu'
p759
sg25
S'9085469708'
p760
sg27
(lp761
g671
asg55
I286
sg56
(lp762
I6
aI1
aI9
aI4
asbasg456
(lp763
I86
aI76
aI95
aI200
aI300
aI190
aI156
aI176
aI199
aI226
aI242
aI268
aI286
aI306
aI312
asg458
(dp764
sg55
I20
sbasg55
I242
sg56
(lp765
sbasg456
(lp766
I85
aI274
aI219
aI163
aI305
aI162
aI183
aI235
aI233
aI211
aI126
aI282
aI99
aI76
aI242
aI230
aI122
aI158
aI166
aI194
aI176
aI241
aI150
aI182
aI200
asg458
(dp767
sg55
I3
sbag185
ag124
ag255
asg55
I99
sg56
(lp768
I21
aI12
aI16
asbag1
(g12
g3
Ntp769
Rp770
(dp771
g16
S'Nancy'
p772
sg18
S'Xiao'
p773
sg20
I0
sg21
g22
sg23
S'nnx@andrew.cmu.edu'
p774
sg25
S'4084395293'
p775
sg27
(lp776
g255
ag159
asg55
I310
sg56
(lp777
I15
aI18
asbag1
(g12
g3
Ntp778
Rp779
(dp780
g16
S'Cari'
p781
sg18
S'Hartigan'
p782
sg20
I0
sg21
g22
sg23
S'chartiga@andrew.cmu.edu'
p783
sg25
S'5108464987'
p784
sg27
(lp785
g185
ag255
asg55
I153
sg56
(lp786
I15
aI17
aI19
asbag430
ag1
(g12
g3
Ntp787
Rp788
(dp789
g16
S'Kristina'
p790
sg18
S'Schiffhauer'
p791
sg20
I0
sg21
g22
sg23
S'kschiffh@andrew.cmu.edu'
p792
sg25
S'585-721-9221'
p793
sg27
(lp794
g242
ag255
asg55
I261
sg56
(lp795
I12
asbasg456
(lp796
I92
aI95
aI164
aI99
aI310
aI91
aI261
aI153
asg458
(dp797
sg55
I13
sbag242
ag220
ag671
ag416
asg55
I95
sg56
(lp798
I17
aI22
asbag430
ag788
ag269
ag164
ag234
ag737
ag1
(g12
g3
Ntp799
Rp800
(dp801
g16
S'Hyeon Ju '
p802
sg18
S'Song'
p803
sg20
I0
sg21
g22
sg23
S'hyeonjus@andrew.cmu.edu'
p804
sg25
S'7322281998'
p805
sg27
(lp806
g111
ag30
ag242
asg55
I254
sg56
(lp807
I7
asbag1
(g12
g3
Ntp808
Rp809
(dp810
g16
S'Suzz'
p811
sg18
S'Glennon'
p812
sg20
I2
sg21
g22
sg23
S'sglennon@andrew.cmu.edu'
p813
sg25
S'6035026290'
p814
sg27
(lp815
g242
asg55
I246
sg56
(lp816
I18
asbag1
(g12
g3
Ntp817
Rp818
(dp819
g16
S'Sarah'
p820
sg18
S'Moss-Horwitz'
p821
sg20
I0
sg21
g22
sg23
S'smosshor@andrew.cmu.edu'
p822
sg25
S'4135888646'
p823
sg27
(lp824
g242
ag220
asg55
I134
sg56
(lp825
I19
aI20
asbag710
ag1
(g12
g3
Ntp826
Rp827
(dp828
g16
S'Elizabeth Ann (Liz)'
p829
sg18
S'Madigan'
p830
sg20
I0
sg21
g22
sg23
S'emadigan@andrew.cmu.edu'
p831
sg25
S'5168497817'
p832
sg27
(lp833
g1
(g2
g3
Ntp834
Rp835
(dp836
g7
I6
sg8
S'Madeleine Hyde'
p837
sg10
(lp838
g1
(g12
g3
Ntp839
Rp840
(dp841
g16
S'Madeleine'
p842
sg18
S'Hyde'
p843
sg20
I0
sg21
g22
sg23
S'mhyde@andrew.cmu.edu'
p844
sg25
S'3013259224'
p845
sg27
(lp846
g835
asg55
I77
sg56
(lp847
sbag1
(g12
g3
Ntp848
Rp849
(dp850
g16
S'Olivia'
p851
sg18
S'Bosquet'
p852
sg20
I2
sg21
g22
sg23
S'oyb@andrew.cmu.edu'
p853
sg25
S'305-793-0977'
p854
sg27
(lp855
g835
asg55
I115
sg56
(lp856
I12
aI11
aI18
aI5
aI13
aI14
aI1
aI8
asbag1
(g12
g3
Ntp857
Rp858
(dp859
g16
S'Margaret'
p860
sg18
S'Edwards'
p861
sg20
I1
sg21
g22
sg23
S'mcedward@andrew.cmu.edu'
p862
sg25
S'4123609424'
p863
sg27
(lp864
g835
ag220
asg55
I127
sg56
(lp865
sbag827
ag1
(g12
g3
Ntp866
Rp867
(dp868
g16
S'Sarah'
p869
sg18
S'Hempton'
p870
sg20
I0
sg21
g22
sg23
S'shempton@andrew.cmu.edu'
p871
sg25
S'858-215-6389'
p872
sg27
(lp873
g835
asg55
I103
sg56
(lp874
sbag1
(g12
g3
Ntp875
Rp876
(dp877
g16
S'Sarah'
p878
sg18
S'Allen'
p879
sg20
I0
sg21
g22
sg23
S'srallen@andrew.cmu.edu'
p880
sg25
S'6505047231'
p881
sg27
(lp882
g835
asg55
I116
sg56
(lp883
sbasg456
(lp884
I77
aI115
aI127
aI136
aI76
aI103
aI116
aI111
asg458
(dp885
sg55
I22
sbag242
asg55
I136
sg56
(lp886
I21
aI13
asbasg456
(lp887
I95
aI91
aI164
aI72
aI157
aI261
aI254
aI246
aI226
aI134
aI156
aI136
aI96
asg458
(dp888
g295
g1
(g516
g3
Ntp889
Rp890
(dp891
g520
I0
sg521
I0
sbsg22
g1
(g516
g3
Ntp892
Rp893
(dp894
g520
I12
sg521
I12
sbssg55
I16
sbasg55
I157
sg56
(lp895
I13
aI12
aI4
aI7
aI11
aI8
asbag212
ag737
ag1
(g12
g3
Ntp896
Rp897
(dp898
g16
S'Calvin'
p899
sg18
S'Chan'
p900
sg20
I0
sg21
g295
sg23
S'ckc1@andrew.cmu.edu'
p901
sg25
S'8083982355'
p902
sg27
(lp903
g220
ag198
asg55
I182
sg56
(lp904
I17
aI20
asbag247
ag1
(g12
g3
Ntp905
Rp906
(dp907
g16
S'Yiru'
p908
sg18
S'Yao'
p909
sg20
I0
sg21
g22
sg23
S'yiruy@andrew.cmu.edu'
p910
sg25
S'4128011980'
p911
sg27
(lp912
g220
ag185
asg55
I225
sg56
(lp913
I17
aI19
asbag260
ag858
ag408
ag818
asg456
(lp914
I83
aI84
aI98
aI226
aI182
aI157
aI95
aI92
aI225
aI127
aI151
aI96
aI260
aI134
aI227
asg458
(dp915
g295
g1
(g516
g3
Ntp916
Rp917
(dp918
g520
I1
sg521
I1
sbsg22
g1
(g516
g3
Ntp919
Rp920
(dp921
g520
I11
sg521
I11
sbssg55
I15
sbasg55
I84
sg56
(lp922
I13
asbag1
(g12
g3
Ntp923
Rp924
(dp925
g16
S'Eric'
p926
sg18
S'Wong'
p927
sg20
I0
sg21
g295
sg23
S'eswong@andrew.cmu.edu'
p928
sg25
S'4084894507'
p929
sg27
(lp930
g198
ag185
asg55
I118
sg56
(lp931
sbag301
ag190
ag1
(g12
g3
Ntp932
Rp933
(dp934
g16
S'Allysa'
p935
sg18
S'Dong'
p936
sg20
I0
sg21
g22
sg23
S'ayd@andrew.cmu.edu'
p937
sg25
S'2012387936'
p938
sg27
(lp939
g185
ag198
asg55
I117
sg56
(lp940
sbag654
ag1
(g12
g3
Ntp941
Rp942
(dp943
g16
S'Judy'
p944
sg18
S'Mai'
p945
sg20
I0
sg21
g22
sg23
S'judym@andrew.cmu.edu'
p946
sg25
S'6462391913'
p947
sg27
(lp948
g198
asg55
I232
sg56
(lp949
sbag1
(g12
g3
Ntp950
Rp951
(dp952
g16
S'DeShawn'
p953
sg18
S'Green'
p954
sg20
I1
sg21
g295
sg23
S'dlgreen@andrew.cmu.edu'
p955
sg25
S'7577759708'
p956
sg27
(lp957
g198
asg55
I312
sg56
(lp958
I7
aI5
aI6
aI2
aI3
aI8
aI11
aI21
aI12
aI20
asbag897
ag1
(g12
g3
Ntp959
Rp960
(dp961
g16
S'neha'
p962
sg18
S'sharma'
p963
sg20
I0
sg21
g22
sg23
S'nehachis@andrew.cmu.edu'
p964
sg25
S'4128013357'
p965
sg27
(lp966
g198
asg55
I281
sg56
(lp967
I5
aI6
aI7
asbag1
(g12
g3
Ntp968
Rp969
(dp970
g16
S'Angie'
p971
sg18
S'Wang'
p972
sg20
I0
sg21
g22
sg23
S'angiewang@cmu.edu'
p973
sg25
S'6507933753'
p974
sg27
(lp975
g43
ag76
ag198
asg55
I260
sg56
(lp976
I12
asbasg456
(lp977
I82
aI84
aI118
aI274
aI117
aI230
aI98
aI182
aI230
aI232
aI312
aI281
aI260
asg458
(dp978
g295
g1
(g516
g3
Ntp979
Rp980
(dp981
g520
I4
sg521
I4
sbsg22
g1
(g516
g3
Ntp982
Rp983
(dp984
g520
I8
sg521
I8
sbssg55
I4
sbag159
ag220
ag185
asg55
I98
sg56
(lp985
I21
aI7
aI2
aI14
aI5
aI3
aI11
aI13
asbag278
ag212
ag779
ag203
ag1
(g12
g3
Ntp986
Rp987
(dp988
g16
S'Nicole'
p989
sg18
S'Ho'
p990
sg20
I0
sg21
g22
sg23
S'ntho@andrew.cmu.edu'
p991
sg25
S'832-465-1011'
p992
sg27
(lp993
g185
ag159
asg55
I308
sg56
(lp994
I13
aI14
asbag234
ag933
ag906
ag388
ag177
ag924
ag225
ag1
(g12
g3
Ntp995
Rp996
(dp997
g16
S'Shawn'
p998
sg18
S'Weng'
p999
sg20
I0
sg21
g22
sg23
S'slweng@andrew.cmu.edu'
p1000
sg25
S'9084475495'
p1001
sg27
(lp1002
g185
ag43
ag76
asg55
I243
sg56
(lp1003
I15
aI20
asbag269
asg456
(lp1004
I98
aI99
aI84
aI78
aI153
aI82
aI109
aI308
aI157
aI225
aI118
aI117
aI83
aI243
aI146
aI92
aI278
aI164
aI227
aI270
aI151
aI108
aI246
aI315
aI95
aI80
asg458
(dp1005
sg55
I18
sbasg55
I109
sg56
(lp1006
I1
aI21
asbag1
(g12
g3
Ntp1007
Rp1008
(dp1009
g16
S'Anny '
p1010
sg18
S'Fan'
p1011
sg20
I1
sg21
g22
sg23
S'afan@andrew.cmu.edu'
p1012
sg25
S'609-721-1939'
p1013
sg27
(lp1014
g172
asg55
I146
sg56
(lp1015
I21
aI5
aI10
asbag164
ag1
(g12
g3
Ntp1016
Rp1017
(dp1018
g16
S'Cortney'
p1019
sg18
S'Padua'
p1020
sg20
I1
sg21
g22
sg23
S'cpadua@andrew.cmu.edu'
p1021
sg25
S'5103506319'
p1022
sg27
(lp1023
g172
asg55
I278
sg56
(lp1024
I12
aI18
aI10
asbag68
ag1
(g12
g3
Ntp1025
Rp1026
(dp1027
g16
S'Carter'
p1028
sg18
S'Nelson'
p1029
sg20
I0
sg21
g295
sg23
S'cjnelson@andrew.cmu.edu'
p1030
sg25
S'9144069690'
p1031
sg27
(lp1032
g172
asg55
I193
sg56
(lp1033
I11
aI10
asbag1
(g12
g3
Ntp1034
Rp1035
(dp1036
g16
S'Chaya'
p1037
sg18
S'Wurman'
p1038
sg20
I0
sg21
g22
sg23
S'cwurman@andrew.cmu.edu'
p1039
sg25
S'720 475 0753'
p1040
sg27
(lp1041
g5
ag124
ag172
asg55
I107
sg56
(lp1042
I18
aI21
asbasg456
(lp1043
I318
aI107
aI109
aI146
aI72
aI278
aI93
aI193
aI78
aI84
aI73
aI92
aI246
aI243
aI95
aI164
asg458
(dp1044
g295
g1
(g516
g3
Ntp1045
Rp1046
(dp1047
g520
I1
sg521
I1
sbsg22
g1
(g516
g3
Ntp1048
Rp1049
(dp1050
g520
I7
sg521
I7
sbssg55
I14
sbag242
asg55
I72
sg56
(lp1051
I3
aI18
aI13
asbag1
(g12
g3
Ntp1052
Rp1053
(dp1054
g16
S'Nicole'
p1055
sg18
S'Nyman'
p1056
sg20
I0
sg21
g22
sg23
S'nbn@andrew.cmu.edu'
p1057
sg25
S'(412) 855 0759'
p1058
sg27
(lp1059
g159
ag124
asg55
I73
sg56
(lp1060
I18
asbag1
(g12
g3
Ntp1061
Rp1062
(dp1063
g16
S'Sandy'
p1064
sg18
S'Jiang'
p1065
sg20
I0
sg21
g22
sg23
g63
sg25
g64
sg27
(lp1066
g5
ag124
ag159
asg55
I75
sg56
(lp1067
I21
aI18
asbag151
ag190
ag212
ag1
(g12
g3
Ntp1068
Rp1069
(dp1070
g16
S'Jade'
p1071
sg18
S'Crockem'
p1072
sg20
I1
sg21
g22
sg23
S'jcrockem@andrew.cmu.edu'
p1073
sg25
S'7133014687'
p1074
sg27
(lp1075
g159
asg55
I315
sg56
(lp1076
I14
aI18
aI10
aI1
asbag471
ag225
ag647
ag987
ag770
asg456
(lp1077
I72
aI73
aI75
aI318
aI92
aI98
aI84
aI164
aI315
aI168
aI83
aI226
aI76
aI308
aI310
aI95
aI127
aI128
aI91
aI157
aI227
asg458
(dp1078
sg55
I12
sbag172
asg55
I318
sg56
(lp1079
I11
aI10
aI8
aI2
aI1
aI18
asbag1
(g12
g3
Ntp1080
Rp1081
(dp1082
g16
S'Annie'
p1083
sg18
S'Cheng'
p1084
sg20
I1
sg21
g22
sg23
S'anniec1@andrew.cmu.edu'
p1085
sg25
S'8053388808'
p1086
sg27
(lp1087
g137
asg55
I259
sg56
(lp1088
I8
aI1
aI6
asbag388
ag1
(g12
g3
Ntp1089
Rp1090
(dp1091
g16
S'Graham'
p1092
sg18
S'Arthur'
p1093
sg20
I0
sg21
g295
sg23
S'garthur@andrew.cmu.edu'
p1094
sg25
S'2'
p1095
sg27
(lp1096
g5
ag137
asg55
I280
sg56
(lp1097
I8
aI13
asbag1
(g12
g3
Ntp1098
Rp1099
(dp1100
g16
S'Emily'
p1101
sg18
S'Helfer'
p1102
sg20
I0
sg21
g22
sg23
S'ehelfer@andrew.cmu.edu'
p1103
sg25
S'3306718127'
p1104
sg27
(lp1105
g137
ag30
asg55
I209
sg56
(lp1106
I20
aI11
aI6
asbag1
(g12
g3
Ntp1107
Rp1108
(dp1109
g16
S'Brian'
p1110
sg18
S'Chen'
p1111
sg20
I0
sg21
g295
sg23
S'bschen@andrew.cmu.edu'
p1112
sg25
S'6469572290'
p1113
sg27
(lp1114
g5
ag30
ag137
asg55
I158
sg56
(lp1115
sbag1
(g12
g3
Ntp1116
Rp1117
(dp1118
g16
S'Katherine'
p1119
sg18
S'Wang'
p1120
sg20
I0
sg21
g22
sg23
S'kyw1@andrew.cmu.edu'
p1121
sg25
S'732-610-3403'
p1122
sg27
(lp1123
g5
ag137
asg55
I218
sg56
(lp1124
I7
aI3
asbasg456
(lp1125
I94
aI78
aI224
aI280
aI158
aI318
aI76
aI259
aI209
aI218
asg458
(dp1126
g295
g1
(g516
g3
Ntp1127
Rp1128
(dp1129
g520
I2
sg521
I2
sbsg22
g1
(g516
g3
Ntp1130
Rp1131
(dp1132
g520
I12
sg521
I12
sbssg55
I5
sbag111
ag124
ag30
asg55
I94
sg56
(lp1133
sbag1
(g12
g3
Ntp1134
Rp1135
(dp1136
g16
S'Leann'
p1137
sg18
S'Bahi'
p1138
sg20
I0
sg21
g22
sg23
S'lbahi@andrew.cmu.edu'
p1139
sg25
S'(650)305-1043'
p1140
sg27
(lp1141
g5
ag124
ag111
asg55
I79
sg56
(lp1142
I3
asbag1062
ag116
ag1035
ag177
ag1
(g12
g3
Ntp1143
Rp1144
(dp1145
g16
S'Sara'
p1146
sg18
S'Deluty'
p1147
sg20
I0
sg21
g22
sg23
S'sdeluty@andrew.cmu.edu'
p1148
sg25
S'9083343349'
p1149
sg27
(lp1150
g5
ag124
asg55
I110
sg56
(lp1151
I8
aI2
aI10
asbag554
ag278
ag1053
asg456
(lp1152
I94
aI79
aI75
aI80
aI107
aI109
aI110
aI130
aI73
aI99
asg458
(dp1153
sg55
I11
sbag383
asg55
I80
sg56
(lp1154
I7
aI2
aI3
aI4
aI5
aI6
aI9
aI10
aI13
aI18
aI14
aI20
asbag68
ag291
ag323
ag332
ag142
ag611
ag602
ag800
ag129
ag1135
ag1
(g12
g3
Ntp1155
Rp1156
(dp1157
g16
S'Katherine'
p1158
sg18
S'Kim'
p1159
sg20
I2
sg21
g22
sg23
S'katherik@andrew.cmu.edu'
p1160
sg25
S'3237172857'
p1161
sg27
(lp1162
g111
asg55
I135
sg56
(lp1163
I7
aI1
aI3
aI10
aI5
aI6
asbag103
ag377
asg456
(lp1164
I80
aI93
aI85
aI88
aI124
aI224
aI233
aI235
aI254
aI94
aI79
aI135
aI87
aI166
aI218
aI78
aI151
aI236
aI167
aI259
asg458
(dp1165
sg55
I8
sbasg55
I87
sg56
(lp1166
sbag1
(g12
g3
Ntp1167
Rp1168
(dp1169
g16
S'Erin'
p1170
sg18
S'Persson'
p1171
sg20
I0
sg21
g22
sg23
S'etp@andrew.cmu.edu'
p1172
sg25
S'2104752122'
p1173
sg27
(lp1174
g98
asg55
I317
sg56
(lp1175
sbag1
(g12
g3
Ntp1176
Rp1177
(dp1178
g16
S'Sabrina'
p1179
sg18
S'Liu'
p1180
sg20
I0
sg21
g22
sg23
S'smliu@andrew.cmu.edu'
p1181
sg25
S'4124989046'
p1182
sg27
(lp1183
g5
ag30
ag98
asg55
I101
sg56
(lp1184
I6
aI5
asbag1
(g12
g3
Ntp1185
Rp1186
(dp1187
g16
S'Erica'
p1188
sg18
S'Huang'
p1189
sg20
I0
sg21
g22
sg23
S'ericahua@andrew.cmu.edu'
p1190
sg25
S'7322847570'
p1191
sg27
(lp1192
g5
ag98
asg55
I212
sg56
(lp1193
I8
aI6
aI5
aI11
asbag1
(g12
g3
Ntp1194
Rp1195
(dp1196
g16
S'sonali'
p1197
sg18
S'avlani'
p1198
sg20
I1
sg21
g22
sg23
S'savlani@andrew.cmu.edu'
p1199
sg25
S'408-660-5626'
p1200
sg27
(lp1201
g98
ag43
asg55
I236
sg56
(lp1202
I8
aI2
aI1
aI6
asbag1
(g12
g3
Ntp1203
Rp1204
(dp1205
g16
S'Sasha'
p1206
sg18
S'Kirshon'
p1207
sg20
I0
sg21
g22
sg23
g63
sg25
g64
sg27
(lp1208
g5
ag98
asg55
I283
sg56
(lp1209
I8
aI5
asbag1
(g12
g3
Ntp1210
Rp1211
(dp1212
g16
S'Molly'
p1213
sg18
S'Chou'
p1214
sg20
I1
sg21
g22
sg23
S'mollyc@andrew.cmu.edu'
p1215
sg25
S'4088235549'
p1216
sg27
(lp1217
g30
ag98
asg55
I285
sg56
(lp1218
I5
asbag1
(g12
g3
Ntp1219
Rp1220
(dp1221
g16
S'Roma'
p1222
sg18
S'Scarano'
p1223
sg20
I0
sg21
g22
sg23
S'rscarano@andrew.cmu.edu'
p1224
sg25
S'9143558326'
p1225
sg27
(lp1226
g5
ag98
asg55
I192
sg56
(lp1227
I2
aI5
asbag35
ag90
ag701
ag14
asg456
(lp1228
I87
aI317
aI101
aI192
aI212
aI236
aI283
aI285
aI71
aI152
aI190
aI301
aI302
aI89
aI243
aI91
asg458
(dp1229
sg55
I10
sbasg55
I152
sg56
(lp1230
I7
aI5
aI14
aI1
aI8
aI20
aI3
asbag203
ag563
ag676
ag1
(g12
g3
Ntp1231
Rp1232
(dp1233
g16
S'Max'
p1234
sg18
S'Mirho'
p1235
sg20
I1
sg21
g295
sg23
S'mmirho@andrew.cmu.edu'
p1236
sg25
S'971-373-0332'
p1237
sg27
(lp1238
g76
asg55
I172
sg56
(lp1239
I1
asbag1
(g12
g3
Ntp1240
Rp1241
(dp1242
g16
S'Elizabeth'
p1243
sg18
S'Elrod'
p1244
sg20
I0
sg21
g22
sg23
S'eelrod@andrew.cmu.edu'
p1245
sg25
S'7132941466'
p1246
sg27
(lp1247
g76
asg55
I145
sg56
(lp1248
I1
aI21
aI13
asbag1
(g12
g3
Ntp1249
Rp1250
(dp1251
g16
S'Meera'
p1252
sg18
S'Patel'
p1253
sg20
I1
sg21
g22
sg23
S'mvpatel@andrew.cmu.edu'
p1254
sg25
S'2709912004'
p1255
sg27
(lp1256
g76
asg55
I174
sg56
(lp1257
I9
asbag969
ag996
ag350
asg456
(lp1258
I89
aI82
aI93
aI152
aI173
aI218
aI243
aI86
aI172
aI145
aI173
aI174
aI218
aI250
aI260
aI268
aI271
aI284
aI207
asg458
(dp1259
sg55
I6
sbag43
ag111
ag172
asg55
I93
sg56
(lp1260
I9
aI3
aI13
aI11
asbag1
(g12
g3
Ntp1261
Rp1262
(dp1263
g16
S'Yufan'
p1264
sg18
S'Wang'
p1265
sg20
I1
sg21
g22
sg23
S'yufanw@andrew.cmu.edu'
p1266
sg25
S'4122188677'
p1267
sg27
(lp1268
g43
asg55
I139
sg56
(lp1269
I8
aI6
aI5
aI1
aI10
aI18
aI21
aI12
asbag611
ag602
ag1
(g12
g3
Ntp1270
Rp1271
(dp1272
g16
S'Brian'
p1273
sg18
S'Li'
p1274
sg20
I0
sg21
g295
sg23
S'bjli@andrew.cmu.edu'
p1275
sg25
S'9785057460'
p1276
sg27
(lp1277
g43
asg55
I237
sg56
(lp1278
I10
aI9
aI2
asbag969
ag1195
ag1
(g12
g3
Ntp1279
Rp1280
(dp1281
g16
S'Catherine'
p1282
sg18
S'Mondoa'
p1283
sg20
I1
sg21
g22
sg23
S'cmondoa@andrew.cmu.edu'
p1284
sg25
S'2404291944'
p1285
sg27
(lp1286
g43
asg55
I125
sg56
(lp1287
I21
aI18
aI14
asbag1
(g12
g3
Ntp1288
Rp1289
(dp1290
g16
S'Jin'
p1291
sg18
S'Fang'
p1292
sg20
I0
sg21
g22
sg23
S'jfang1@andrew.cmu.edu'
p1293
sg25
S'9737221507'
p1294
sg27
(lp1295
g43
asg55
I185
sg56
(lp1296
I3
aI4
aI8
aI1
aI9
asbag996
ag1
(g12
g3
Ntp1297
Rp1298
(dp1299
g16
S'Dina'
p1300
sg18
S'Chen'
p1301
sg20
I0
sg21
g22
sg23
S'dinac@andrew.cmu.edu'
p1302
sg25
g444
sg27
(lp1303
g43
asg55
I122
sg56
(lp1304
I9
aI2
aI8
asbag359
asg456
(lp1305
I81
aI71
aI74
aI93
aI139
aI233
aI235
aI236
aI237
aI260
aI218
aI125
aI122
aI185
aI243
aI305
aI137
aI89
aI242
aI312
aI319
asg458
(dp1306
sg55
I7
sbag98
asg55
I71
sg56
(lp1307
I5
aI8
aI3
aI11
aI6
asbag59
ag1177
ag1
(g12
g3
Ntp1308
Rp1309
(dp1310
g16
S'Sabrina'
p1311
sg18
S'Clarke'
p1312
sg20
I0
sg21
g22
sg23
S'sclarke@andrew.cmu.edu'
p1313
sg25
g715
sg27
(lp1314
g5
ag30
asg55
I105
sg56
(lp1315
sbag1
(g12
g3
Ntp1316
Rp1317
(dp1318
g16
S'Jaebin'
p1319
sg18
S'Park'
p1320
sg20
I1
sg21
g295
sg23
S'jaebinp@andrew.cmu.edu'
p1321
sg25
S'6033036336'
p1322
sg27
(lp1323
g30
asg55
I188
sg56
(lp1324
I3
aI5
aI1
asbag1108
ag1
(g12
g3
Ntp1325
Rp1326
(dp1327
g16
S'Michelle'
p1328
sg18
S'Ong'
p1329
sg20
I0
sg21
g22
sg23
S'mong@andrew.cmu.edu'
p1330
sg25
S'4122517959'
p1331
sg27
(lp1332
g5
ag30
asg55
I309
sg56
(lp1333
sbag1211
ag14
ag1
(g12
g3
Ntp1334
Rp1335
(dp1336
g16
S'Steffen'
p1337
sg18
S'Holm'
p1338
sg20
I0
sg21
g295
sg23
S'saholm@andrew.cmu.edu'
p1339
sg25
S'8587316501'
p1340
sg27
(lp1341
g5
ag30
asg55
I284
sg56
(lp1342
I5
aI6
aI20
asbag129
ag341
ag1099
ag800
ag554
ag1
(g12
g3
Ntp1343
Rp1344
(dp1345
g16
S'Courtney'
p1346
sg18
S'Thier'
p1347
sg20
I0
sg21
g22
sg23
S'cthier@andrew.cmu.edu'
p1348
sg25
S'412-225-7317'
p1349
sg27
(lp1350
g5
ag30
asg55
I302
sg56
(lp1351
I7
asbag1
(g12
g3
Ntp1352
Rp1353
(dp1354
g16
S'Jibby'
p1355
sg18
S'Ayo-Ani'
p1356
sg20
I2
sg21
g22
sg23
S'osa@andrew.cmu.edu'
p1357
sg25
S'3012574428'
p1358
sg27
(lp1359
g30
asg55
I262
sg56
(lp1360
sbasg456
(lp1361
I71
aI74
aI101
aI105
aI188
aI158
aI309
aI284
aI94
aI285
aI301
aI302
aI209
aI183
aI254
aI130
aI262
aI242
aI243
aI260
aI274
aI76
asg458
(dp1362
sg55
I2
sbag98
asg55
I301
sg56
(lp1363
I3
aI12
aI11
asbag116
ag1
(g12
g3
Ntp1364
Rp1365
(dp1366
g16
S'Alisha'
p1367
sg18
S'Mayor'
p1368
sg20
I1
sg21
g22
sg23
S'amayor@andrew.cmu.edu'
p1369
sg25
S'4088269736'
p1370
sg27
(lp1371
g5
asg55
I307
sg56
(lp1372
I5
aI10
aI8
aI7
aI12
aI21
asbag1344
ag35
ag59
ag1
(g12
g3
Ntp1373
Rp1374
(dp1375
g16
S'Jaclyn '
p1376
sg18
S'Zois '
p1377
sg20
I1
sg21
g22
sg23
S'jzois@andrew.cmu.edu'
p1378
sg25
S'508-479-5254'
p1379
sg27
(lp1380
g5
asg55
I270
sg56
(lp1381
I18
asbag1062
ag1177
ag1144
ag1309
ag1090
ag1335
ag1108
ag1326
ag103
ag291
ag1135
ag1
(g12
g3
Ntp1382
Rp1383
(dp1384
g16
S'Gillan'
p1385
sg18
S'Johnson'
p1386
sg20
I1
sg21
g22
sg23
S'gkj@andrew.cmu.edu'
p1387
sg25
S'202-384-0102'
p1388
sg27
(lp1389
g5
asg55
I311
sg56
(lp1390
I10
aI5
asbag1186
ag1204
ag1220
ag1035
ag527
ag1
(g12
g3
Ntp1391
Rp1392
(dp1393
g16
S'Victoria'
p1394
sg18
S'Van Benschoten'
p1395
sg20
I1
sg21
g22
sg23
S'vvanbens@andrew.cmu.edu'
p1396
sg25
S'6145574170'
p1397
sg27
(lp1398
g5
asg55
I108
sg56
(lp1399
I21
asbag142
ag332
ag1117
asg456
(lp1400
I301
aI80
aI307
aI302
aI71
aI74
aI270
aI75
aI101
aI110
aI105
aI280
aI284
aI158
aI309
aI87
aI85
aI79
aI311
aI151
aI212
aI283
aI192
aI107
aI304
aI259
aI108
aI224
aI124
aI218
aI207
aI257
aI166
asg458
(dp1401
sg55
I1
sbsI2
g30
sI3
g286
sI4
g198
sI5
g137
sI6
g76
sI7
g43
sI8
g111
sI9
g318
sI10
g98
sI11
g124
sI12
g159
sI13
g255
sI14
g172
sI15
g220
sI16
g242
sI17
g403
sI18
g185
sI19
g416
sI20
g671
sI21
g383
sI22
g835
s.